ccopy_reg
_reconstructor
p0
(csklearn.feature_extraction.dict_vectorizer
DictVectorizer
p1
c__builtin__
object
p2
Ntp3
Rp4
(dp5
S'vocabulary_'
p6
(dp7
S'VIOLATOR_INSPECTION_DAY_CNT=454'
p8
I1329
sS'TOTAL_ON_SITE_HRS_SPVR_TRAINEE=59'
p9
I1192
sS'TOTAL_ON_SITE_HRS_SPVR_TRAINEE=56'
p10
I1191
sS'VIOLATOR_INSPECTION_DAY_CNT=101'
p11
I1204
sS'TOTAL_ON_SITE_HRS_SPVR_TRAINEE=50'
p12
I1190
sS'VIOLATOR_INSPECTION_DAY_CNT=103'
p13
I1205
sS'SAMPLE_CNT_RESPDUST=60'
p14
I711
sS'SAMPLE_CNT_RESPDUST=63'
p15
I712
sS'SAMPLE_CNT_RESPDUST=65'
p16
I713
sS'SAMPLE_CNT_RESPDUST=66'
p17
I714
sS'TOTAL_INSP_HOURS=61'
p18
I875
sS'INJ_ILLNESS=Permanent'
p19
I141
sS'PROGRAM_AREA=M/NM--Compliance Follow-up Inspection'
p20
I404
sS'SAMPLE_CNT_RESPDUST=252'
p21
I680
sS'SAMPLE_CNT_DUSTSURVEY=164'
p22
I522
sS'VIOLATOR_VIOLATION_CNT=126'
p23
I1423
sS'NO_EMPLOYEES=274'
p24
I227
sS'SAMPLE_CNT_DUSTSURVEY=210'
p25
I530
sS'VIOLATOR_VIOLATION_CNT=121'
p26
I1422
sS'VIOLATOR_VIOLATION_CNT=128'
p27
I1424
sS'VIOLATOR_VIOLATION_CNT=129'
p28
I1425
sS'AVG_MINE_HEIGHT=29'
p29
I72
sS'AVG_MINE_HEIGHT=20'
p30
I69
sS'ACTIVITY=HAZARD COMPLAINT INSPECTION'
p31
I27
sS'AVG_MINE_HEIGHT=24'
p32
I71
sS'PRIMARY_SIC=Sand, Common'
p33
I343
sS'SAMPLE_CNT_RESPDUST=279'
p34
I684
sS'SAMPLE_CNT_DUSTSURVEY=102'
p35
I508
sS'SAMPLE_CNT_DUSTSURVEY=105'
p36
I509
sS'NO_EMPLOYEES=45'
p37
I238
sS'NO_EMPLOYEES=43'
p38
I237
sS'NO_EMPLOYEES=41'
p39
I236
sS'SAMPLE_CNT_AIR=680'
p40
I477
sS'SAMPLE_CNT_NOISE=75'
p41
I617
sS'SAMPLE_CNT_AIR=350'
p42
I459
sS'TOTAL_ON_SITE_HOURS=605'
p43
I1113
sS'VIOLATOR_INSPECTION_DAY_CNT=58'
p44
I1366
sS'VIOLATOR_INSPECTION_DAY_CNT=59'
p45
I1367
sS'VIOLATOR_INSPECTION_DAY_CNT=54'
p46
I1364
sS'VIOLATOR_INSPECTION_DAY_CNT=56'
p47
I1365
sS'VIOLATOR_INSPECTION_DAY_CNT=50'
p48
I1360
sS'VIOLATOR_INSPECTION_DAY_CNT=147'
p49
I1229
sS'VIOLATOR_INSPECTION_DAY_CNT=53'
p50
I1363
sS'TOTAL_ON_SITE_HOURS=289'
p51
I1051
sS'TOTAL_ON_SITE_HOURS=285'
p52
I1050
sS'DAYS_PER_WEEK=0'
p53
I103
sS'DAYS_PER_WEEK=1'
p54
I104
sS'DAYS_PER_WEEK=2'
p55
I105
sS'DAYS_PER_WEEK=3'
p56
I106
sS'DAYS_PER_WEEK=4'
p57
I107
sS'DAYS_PER_WEEK=5'
p58
I108
sS'DAYS_PER_WEEK=6'
p59
I109
sS'DAYS_PER_WEEK=7'
p60
I110
sS'PRIMARY_SIC=Sand, Industrial NEC'
p61
I344
sS'ACTIVITY=VERBAL HAZARD COMPLAINT'
p62
I60
sS'TOTAL_INSP_HOURS=540'
p63
I866
sS'TOTAL_INSP_HOURS=548'
p64
I867
sS'VIOLATOR_INSPECTION_DAY_CNT=387'
p65
I1284
sS'VIOLATOR_INSPECTION_DAY_CNT=383'
p66
I1283
sS'TOTAL_ON_SITE_HOURS=31'
p67
I1056
sS'TOTAL_INSP_HOURS=165'
p68
I790
sS'TOTAL_INSP_HOURS=163'
p69
I789
sS'PILLAR_RECOVERY_USED=N'
p70
I250
sS'SAMPLE_CNT_NOISE=150'
p71
I581
sS'VIOLATOR_VIOLATION_CNT=50'
p72
I1547
sS'PROGRAM_AREA=Coal--Roof Control Technical Investigation'
p73
I388
sS'ACTIVITY=ROOF CONTROL SPOT INSPECTION'
p74
I47
sS'ACTIVE_SECTIONS=3'
p75
I3
sS'ACTIVE_SECTIONS=2'
p76
I2
sS'ACTIVE_SECTIONS=1'
p77
I1
sS'ACTIVE_SECTIONS=0'
p78
I0
sS'ACTIVE_SECTIONS=5'
p79
I6
sS'ACTIVE_SECTIONS=4'
p80
I5
sS'SAMPLE_CNT_RESPDUST=75'
p81
I718
sS'SAMPLE_CNT_RESPDUST=72'
p82
I717
sS'SAMPLE_CNT_RESPDUST=70'
p83
I716
sS'TOTAL_ON_SITE_HRS_SPVR_TRAINEE=68'
p84
I1194
sS'SAMPLE_CNT_RESPDUST=78'
p85
I719
sS'VIOLATOR_VIOLATION_CNT=101'
p86
I1409
sS'PRIMARY_SIC=Crushed, Broken Marble'
p87
I312
sS'ACTIVITY=103(I) SPOT (15 DAY) INSPECTION'
p88
I10
sS'PROGRAM_AREA=M/NM--103 (g) Written Notification Hazard Complaint Inspecti'
p89
I399
sS'TOTAL_INSP_HOURS=47'
p90
I856
sS'VIOLATOR_VIOLATION_CNT=428'
p91
I1538
sS'VIOLATOR_VIOLATION_CNT=139'
p92
I1429
sS'VIOLATOR_VIOLATION_CNT=137'
p93
I1428
sS'VIOLATOR_VIOLATION_CNT=134'
p94
I1427
sS'SAMPLE_CNT_RESPDUST=396'
p95
I697
sS'SAMPLE_CNT_DUSTSURVEY=177'
p96
I525
sS'SAMPLE_CNT_RESPDUST=240'
p97
I677
sS'ACTIVITY=ELECTRICAL SPOT INSPECTION'
p98
I22
sS'LIKELIHOOD='
p99
I142
sS'ACTIVITY=VENTILATION TECHNICAL INSPECTION'
p100
I58
sS'SAMPLE_CNT_AIR=124'
p101
I430
sS'TOTAL_ON_SITE_HOURS=148'
p102
I989
sS'SAMPLE_CNT_RESPDUST=1885'
p103
I665
sS'SAMPLE_CNT_RESPDUST=2759'
p104
I683
sS'SAMPLE_CNT_NOISE=45'
p105
I604
sS'SAMPLE_CNT_NOISE=40'
p106
I603
sS'NO_EMPLOYEES=2'
p107
I218
sS'NO_EMPLOYEES=3'
p108
I230
sS'VIOLATOR_INSPECTION_DAY_CNT=154'
p109
I1231
sS'VIOLATOR_INSPECTION_DAY_CNT=155'
p110
I1232
sS'NO_EMPLOYEES=6'
p111
I241
sS'NO_EMPLOYEES=7'
p112
I242
sS'NO_EMPLOYEES=4'
p113
I235
sS'NO_EMPLOYEES=5'
p114
I239
sS'VIOLATOR_INSPECTION_DAY_CNT=43'
p115
I1306
sS'VIOLATOR_INSPECTION_DAY_CNT=42'
p116
I1297
sS'VIOLATOR_INSPECTION_DAY_CNT=41'
p117
I1293
sS'NO_EMPLOYEES=9'
p118
I244
sS'VIOLATOR_INSPECTION_DAY_CNT=47'
p119
I1344
sS'VIOLATOR_INSPECTION_DAY_CNT=46'
p120
I1335
sS'VIOLATOR_INSPECTION_DAY_CNT=45'
p121
I1324
sS'VIOLATOR_INSPECTION_DAY_CNT=44'
p122
I1315
sS'PRIMARY_SIC=Fire Clay'
p123
I325
sS'TOTAL_ON_SITE_HOURS=252'
p124
I1042
sS'TOTAL_ON_SITE_HOURS=255'
p125
I1043
sS'PRIMARY_SIC=Oil Shale'
p126
I338
sS'TOTAL_ON_SITE_HOURS=702'
p127
I1128
sS'VIOLATOR_INSPECTION_DAY_CNT=394'
p128
I1287
sS'VIOLATOR_INSPECTION_DAY_CNT=397'
p129
I1288
sS'VIOLATOR_INSPECTION_DAY_CNT=393'
p130
I1286
sS'VIOLATOR_INSPECTION_DAY_CNT=399'
p131
I1289
sS'PRIMARY_SIC=Ground Silica'
p132
I329
sS'SIG_SUB='
p133
I739
sS'PROD_SHIFTS_PER_DAY=2'
p134
I349
sS'TOTAL_INSP_HOURS=119'
p135
I765
sS'TOTAL_INSP_HOURS=110'
p136
I760
sS'TOTAL_INSP_HOURS=111'
p137
I761
sS'TOTAL_INSP_HOURS=114'
p138
I762
sS'TOTAL_INSP_HOURS=115'
p139
I763
sS'TOTAL_INSP_HOURS=117'
p140
I764
sS'SAMPLE_CNT_NOISE=140'
p141
I580
sS'VIOLATOR_INSPECTION_DAY_CNT=94'
p142
I1400
sS'TOTAL_INSP_HOURS=289'
p143
I819
sS'SAMPLE_CNT_NOISE=1045'
p144
I571
sS'TOTAL_INSP_HOURS=83'
p145
I900
sS'PROGRAM_AREA=Coal--ROOF CONTROL TECHNICAL INVESTIGTION'
p146
I385
sS'PRIMARY_SIC=Common Shale'
p147
I307
sS'SAMPLE_CNT_NOISE=960'
p148
I622
sS'DRAGLINES=1'
p149
I112
sS'DRAGLINES=0'
p150
I111
sS'HOURS_PER_SHIFT=2'
p151
I124
sS'HOURS_PER_SHIFT=0'
p152
I117
sS'HOURS_PER_SHIFT=1'
p153
I118
sS'HOURS_PER_SHIFT=6'
p154
I127
sS'HOURS_PER_SHIFT=7'
p155
I128
sS'HOURS_PER_SHIFT=4'
p156
I125
sS'HOURS_PER_SHIFT=5'
p157
I126
sS'HOURS_PER_SHIFT=8'
p158
I129
sS'HOURS_PER_SHIFT=9'
p159
I130
sS'PROGRAM_AREA=Coal--Health Technical Investigation'
p160
I369
sS'SAMPLE_CNT_RESPDUST=30'
p161
I687
sS'SAMPLE_CNT_AIR=979'
p162
I494
sS'VIOLATOR_VIOLATION_CNT=380'
p163
I1517
sS'VIOLATOR_VIOLATION_CNT=382'
p164
I1518
sS'VIOLATOR_VIOLATION_CNT=383'
p165
I1519
sS'VIOLATOR_VIOLATION_CNT=385'
p166
I1520
sS'VIOLATOR_VIOLATION_CNT=386'
p167
I1521
sS'VIOLATOR_VIOLATION_CNT=387'
p168
I1522
sS'VIOLATOR_VIOLATION_CNT=148'
p169
I1433
sS'VIOLATOR_VIOLATION_CNT=149'
p170
I1434
sS'VIOLATOR_VIOLATION_CNT=144'
p171
I1432
sS'VIOLATOR_VIOLATION_CNT=142'
p172
I1431
sS'SAMPLE_CNT_RESPDUST=270'
p173
I682
sS'INJ_ILLNESS=NoLostDays'
p174
I140
sS'SAMPLE_CNT_AIR=208'
p175
I444
sS'SAMPLE_CNT_AIR=203'
p176
I443
sS'COAL_METAL_IND=M'
p177
I98
sS'SAMPLE_CNT_DUSTSURVEY=166'
p178
I523
sS'SAMPLE_CNT_RESPDUST=250'
p179
I679
sS'COAL_METAL_IND=C'
p180
I97
sS'SAMPLE_CNT_NOISE=52'
p181
I611
sS'SAMPLE_CNT_NOISE=50'
p182
I609
sS'SAMPLE_CNT_NOISE=51'
p183
I610
sS'SAMPLE_CNT_NOISE=55'
p184
I612
sS'TOTAL_INSP_HOURS=109'
p185
I758
sS'LIKELIHOOD=Occurred'
p186
I145
sS'ACTIVE_SECTIONS=30'
p187
I4
sS'SAMPLE_CNT_DUSTSPOT=267'
p188
I499
sS'SAMPLE_CNT_DUSTSURVEY=1120'
p189
I512
sS'VIOLATOR_INSPECTION_DAY_CNT=126'
p190
I1221
sS'VIOLATOR_INSPECTION_DAY_CNT=125'
p191
I1220
sS'TOTAL_INSP_HOURS=89'
p192
I905
sS'SAMPLE_CNT_OTHER=32'
p193
I624
sS'TOTAL_ON_SITE_HOURS=249'
p194
I1040
sS'TOTAL_INSP_HOURS=81'
p195
I898
sS'TOTAL_INSP_HOURS=80'
p196
I897
sS'TOTAL_ON_SITE_HOURS=244'
p197
I1039
sS'TOTAL_INSP_HOURS=82'
p198
I899
sS'TOTAL_INSP_HOURS=85'
p199
I902
sS'TOTAL_INSP_HOURS=84'
p200
I901
sS'TOTAL_INSP_HOURS=87'
p201
I904
sS'TOTAL_INSP_HOURS=86'
p202
I903
sS'PROGRAM_AREA=Coal--ACCIDENT PREVENTION SPOT INSPECTION'
p203
I360
sS'VIOLATOR_INSPECTION_DAY_CNT=235'
p204
I1255
sS'TOTAL_ON_SITE_HOURS=487'
p205
I1094
sS'TOTAL_ON_SITE_HOURS=481'
p206
I1093
sS'TOTAL_ON_SITE_HOURS=397'
p207
I1073
sS'TOTAL_ON_SITE_HOURS=679'
p208
I1123
sS'TOTAL_INSP_HOURS=190'
p209
I797
sS'PRIMARY_SIC=Chem. and Fertil. Mnls. NEC'
p210
I303
sS'TOTAL_INSP_HOURS=108'
p211
I757
sS'SAMPLE_CNT_DUSTSURVEY=89'
p212
I562
sS'TOTAL_INSP_HOURS=103'
p213
I753
sS'TOTAL_INSP_HOURS=102'
p214
I752
sS'TOTAL_INSP_HOURS=100'
p215
I751
sS'TOTAL_INSP_HOURS=107'
p216
I756
sS'TOTAL_INSP_HOURS=106'
p217
I755
sS'TOTAL_INSP_HOURS=105'
p218
I754
sS'PRIMARY_SIC=Copper Ore NEC'
p219
I309
sS'PRIMARY_SIC=Dimension Granite'
p220
I318
sS'SAMPLE_CNT_RESPDUST=400'
p221
I699
sS'NO_AFFECTED=31'
p222
I197
sS'TOTAL_INSP_HOURS=291'
p223
I821
sS'PROGRAM_AREA=Coal--Shaft, Slope or Major Construction Spot Inspection'
p224
I391
sS'TOTAL_ON_SITE_HOURS=54'
p225
I1103
sS'SAMPLE_CNT_NOISE=352'
p226
I599
sS'VIOLATOR_VIOLATION_CNT=34'
p227
I1494
sS'SAMPLE_CNT_NOISE=357'
p228
I600
sS'PRIMARY_SIC=Leonardite'
p229
I334
sS'PROGRAM_AREA=Coal--Verbal Hazard Complaint Inspections'
p230
I396
sS'TOTAL_INSP_HOURS=63'
p231
I877
sS'TOTAL_INSP_HOURS=62'
p232
I876
sS'LIKELIHOOD=Reasonably'
p233
I146
sS'TOTAL_INSP_HOURS=60'
p234
I874
sS'TOTAL_INSP_HOURS=67'
p235
I882
sS'TOTAL_INSP_HOURS=66'
p236
I881
sS'TOTAL_INSP_HOURS=65'
p237
I880
sS'TOTAL_INSP_HOURS=64'
p238
I878
sS'TOTAL_INSP_HOURS=69'
p239
I884
sS'TOTAL_INSP_HOURS=68'
p240
I883
sS'PRIMARY_SIC=Dimension Limestone'
p241
I319
sS'SAMPLE_CNT_NOISE=284'
p242
I591
sS'NO_AFFECTED=6'
p243
I200
sS'NO_AFFECTED=7'
p244
I201
sS'NO_AFFECTED=4'
p245
I198
sS'NO_AFFECTED=5'
p246
I199
sS'NO_AFFECTED=2'
p247
I192
sS'NO_AFFECTED=3'
p248
I195
sS'NO_AFFECTED=0'
p249
I183
sS'NO_AFFECTED=1'
p250
I184
sS'NO_AFFECTED=8'
p251
I203
sS'NO_AFFECTED=9'
p252
I204
sS'HOURS_PER_SHIFT=14'
p253
I122
sS'HOURS_PER_SHIFT=16'
p254
I123
sS'HOURS_PER_SHIFT=10'
p255
I119
sS'HOURS_PER_SHIFT=11'
p256
I120
sS'HOURS_PER_SHIFT=12'
p257
I121
sS'SAMPLE_CNT_RESPDUST=10'
p258
I627
sS'SAMPLE_CNT_RESPDUST=12'
p259
I633
sS'UNCLASSIFIED_CONSTR=0'
p260
I1198
sS'UNCLASSIFIED_CONSTR=1'
p261
I1199
sS'UNCLASSIFIED_CONSTR=2'
p262
I1200
sS'SAMPLE_CNT_RESPDUST=16'
p263
I653
sS'SAMPLE_CNT_RESPDUST=18'
p264
I663
sS'AVG_MINE_HEIGHT=0'
p265
I66
sS'AVG_MINE_HEIGHT=1'
p266
I67
sS'PROGRAM_AREA=Coal--Regular Inspection'
p267
I386
sS'ACTIVITY=Other Technical Compliance Investigations'
p268
I38
sS'ACTIVITY=RESP DUST TECH INSP - SURFACE MINES'
p269
I43
sS'IDLE_SECTIONS=1'
p270
I132
sS'IDLE_SECTIONS=0'
p271
I131
sS'IDLE_SECTIONS=2'
p272
I133
sS'PRIMARY_SIC=Construction Sand and Gravel'
p273
I308
sS'ACTIVITY=RESP DUST TECH INSP - U. G. MINES'
p274
I44
sS'PRIMARY_SIC=Gold Ore'
p275
I328
sS'VIOLATOR_VIOLATION_CNT=11'
p276
I1414
sS'VIOLATOR_VIOLATION_CNT=10'
p277
I1408
sS'VIOLATOR_VIOLATION_CNT=13'
p278
I1426
sS'VIOLATOR_VIOLATION_CNT=12'
p279
I1421
sS'VIOLATOR_VIOLATION_CNT=15'
p280
I1435
sS'VIOLATOR_VIOLATION_CNT=14'
p281
I1430
sS'VIOLATOR_VIOLATION_CNT=17'
p282
I1441
sS'VIOLATOR_VIOLATION_CNT=16'
p283
I1438
sS'VIOLATOR_VIOLATION_CNT=19'
p284
I1445
sS'VIOLATOR_VIOLATION_CNT=18'
p285
I1443
sS'ACTIVITY=Shaft, Slope or Major Construction Spot Inspection'
p286
I56
sS'VIOLATOR_VIOLATION_CNT=398'
p287
I1528
sS'VIOLATOR_VIOLATION_CNT=396'
p288
I1527
sS'ACTIVITY=MISCELLANEOUS INSPECTION/INVESTIGATION'
p289
I30
sS'VIOLATOR_VIOLATION_CNT=393'
p290
I1526
sS'VIOLATOR_VIOLATION_CNT=392'
p291
I1525
sS'VIOLATOR_VIOLATION_CNT=390'
p292
I1524
sS'VIOLATOR_VIOLATION_CNT=408'
p293
I1535
sS'VIOLATOR_VIOLATION_CNT=154'
p294
I1437
sS'VIOLATOR_VIOLATION_CNT=405'
p295
I1534
sS'VIOLATOR_VIOLATION_CNT=404'
p296
I1533
sS'VIOLATOR_VIOLATION_CNT=403'
p297
I1532
sS'VIOLATOR_VIOLATION_CNT=402'
p298
I1531
sS'VIOLATOR_VIOLATION_CNT=152'
p299
I1436
sS'PROGRAM_AREA=Coal--NONFATAL INJURY ACCIDENT INV'
p300
I373
sS'SAMPLE_CNT_DUSTSPOT=83'
p301
I505
sS'SAMPLE_CNT_AIR=740'
p302
I484
sS'SAMPLE_CNT_DUSTSURVEY=150'
p303
I519
sS'SAMPLE_CNT_DUSTSURVEY=154'
p304
I520
sS'PROGRAM_AREA=Coal--ROOF CONTROL TECHNICAL INSPECTION'
p305
I384
sS'TOTAL_ON_SITE_HOURS=565'
p306
I1106
sS'SAMPLE_CNT_NOISE=26'
p307
I590
sS'SAMPLE_CNT_NOISE=25'
p308
I588
sS'SAMPLE_CNT_RESPDUST=282'
p309
I685
sS'VIOLATOR_INSPECTION_DAY_CNT=480'
p310
I1353
sS'VIOLATOR_INSPECTION_DAY_CNT=481'
p311
I1354
sS'VIOLATOR_INSPECTION_DAY_CNT=482'
p312
I1355
sS'VIOLATOR_INSPECTION_DAY_CNT=483'
p313
I1356
sS'VIOLATOR_INSPECTION_DAY_CNT=485'
p314
I1357
sS'SAMPLE_CNT_AIR=100'
p315
I422
sS'SAMPLE_CNT_AIR=105'
p316
I425
sS'SAMPLE_CNT_AIR=104'
p317
I424
sS'AVG_MINE_HEIGHT=72'
p318
I92
sS'AVG_MINE_HEIGHT=70'
p319
I91
sS'SAMPLE_CNT_AIR=580'
p320
I473
sS'SAMPLE_CNT_AIR=564'
p321
I472
sS'VIOLATOR_INSPECTION_DAY_CNT=130'
p322
I1223
sS'ACTIVITY=Regular Inspection'
p323
I50
sS'VIOLATOR_INSPECTION_DAY_CNT=132'
p324
I1225
sS'VIOLATOR_INSPECTION_DAY_CNT=133'
p325
I1226
sS'VIOLATOR_INSPECTION_DAY_CNT=134'
p326
I1227
sS'TOTAL_ON_SITE_HOURS=128'
p327
I973
sS'TOTAL_ON_SITE_HOURS=127'
p328
I972
sS'TOTAL_ON_SITE_HOURS=126'
p329
I971
sS'TOTAL_ON_SITE_HOURS=125'
p330
I970
sS'TOTAL_ON_SITE_HOURS=124'
p331
I969
sS'TOTAL_ON_SITE_HOURS=123'
p332
I968
sS'TOTAL_ON_SITE_HOURS=122'
p333
I967
sS'TOTAL_ON_SITE_HOURS=120'
p334
I966
sS'PRIMARY_SIC=Kaolin and Ball Clay'
p335
I332
sS'NO_EMPLOYEES=0'
p336
I205
sS'VIOLATOR_INSPECTION_DAY_CNT=466'
p337
I1340
sS'TOTAL_INSP_HOURS=99'
p338
I913
sS'TOTAL_INSP_HOURS=96'
p339
I912
sS'TOTAL_INSP_HOURS=94'
p340
I911
sS'TOTAL_INSP_HOURS=92'
p341
I909
sS'TOTAL_INSP_HOURS=93'
p342
I910
sS'TOTAL_INSP_HOURS=90'
p343
I907
sS'TOTAL_INSP_HOURS=91'
p344
I908
sS'ACTIVITY=Roof Control Technical Investigation'
p345
I52
sS'VIOLATOR_INSPECTION_DAY_CNT=228'
p346
I1253
sS'TOTAL_ON_SITE_HOURS=167'
p347
I1004
sS'SAMPLE_CNT_OTHER=0'
p348
I623
sS'VIOLATOR_INSPECTION_DAY_CNT=222'
p349
I1252
sS'VIOLATOR_INSPECTION_DAY_CNT=463'
p350
I1338
sS'VIOLATOR_VIOLATION_CNT=1'
p351
I1407
sS'VIOLATOR_VIOLATION_CNT=0'
p352
I1406
sS'VIOLATOR_VIOLATION_CNT=3'
p353
I1472
sS'VIOLATOR_VIOLATION_CNT=2'
p354
I1446
sS'VIOLATOR_VIOLATION_CNT=5'
p355
I1546
sS'VIOLATOR_VIOLATION_CNT=4'
p356
I1529
sS'VIOLATOR_VIOLATION_CNT=7'
p357
I1564
sS'VIOLATOR_VIOLATION_CNT=6'
p358
I1556
sS'VIOLATOR_VIOLATION_CNT=9'
p359
I1579
sS'PROGRAM_AREA=M/NM--Other Technical Compliance Investigations'
p360
I410
sS'PRIMARY_SIC=Feldspar'
p361
I324
sS'PROGRAM_AREA=M/NM--Verbal Hazard Complaint Inspections'
p362
I417
sS'PRIMARY_CANVASS=Metal'
p363
I293
sS'AVG_MINE_HEIGHT=108'
p364
I68
sS'SAMPLE_CNT_RESPDUST=833'
p365
I721
sS'TOTAL_ON_SITE_HOURS=839'
p366
I1144
sS'PROGRAM_AREA=M/NM--HAZARD COMPLAINT INSPECTION'
p367
I405
sS'TOTAL_INSP_HOURS=137'
p368
I775
sS'TOTAL_INSP_HOURS=133'
p369
I774
sS'SAMPLE_CNT_NOISE=165'
p370
I584
sS'SAMPLE_CNT_NOISE=160'
p371
I583
sS'MINE_TYPE=Surface'
p372
I155
sS'NEGLIGENCE=Reckless'
p373
I182
sS'PRIMARY_SIC=Gypsum'
p374
I330
sS'VIOLATOR_VIOLATION_CNT=107'
p375
I1412
sS'TOTAL_INSP_HOURS=70'
p376
I886
sS'TOTAL_INSP_HOURS=71'
p377
I887
sS'TOTAL_INSP_HOURS=72'
p378
I888
sS'TOTAL_INSP_HOURS=73'
p379
I889
sS'TOTAL_INSP_HOURS=74'
p380
I890
sS'TOTAL_INSP_HOURS=75'
p381
I891
sS'TOTAL_INSP_HOURS=76'
p382
I892
sS'TOTAL_INSP_HOURS=77'
p383
I893
sS'TOTAL_INSP_HOURS=78'
p384
I894
sS'TOTAL_INSP_HOURS=79'
p385
I895
sS'SAMPLE_CNT_NOISE=295'
p386
I592
sS'VIOLATOR_VIOLATION_CNT=109'
p387
I1413
sS'SAMPLE_CNT_RESPDUST=24'
p388
I676
sS'SAMPLE_CNT_RESPDUST=25'
p389
I678
sS'SAMPLE_CNT_RESPDUST=26'
p390
I681
sS'SAMPLE_CNT_RESPDUST=1457'
p391
I647
sS'SAMPLE_CNT_RESPDUST=20'
p392
I668
sS'ASMT_GENERATED_IND=N'
p393
I65
sS'PRIMARY_SIC=Gilsonite'
p394
I327
sS'PRIMARY_SIC=Dimension Sandstone'
p395
I321
sS'VIOLATOR_VIOLATION_CNT=362'
p396
I1507
sS'SAMPLE_CNT_AIR=825'
p397
I486
sS'VIOLATOR_VIOLATION_CNT=361'
p398
I1506
sS'VIOLATOR_VIOLATION_CNT=364'
p399
I1508
sS'VIOLATOR_VIOLATION_CNT=368'
p400
I1509
sS'SAMPLE_CNT_AIR=69'
p401
I478
sS'VIOLATOR_VIOLATION_CNT=163'
p402
I1439
sS'PRIMARY_SIC=Quartz, Ground'
p403
I341
sS'VIOLATOR_VIOLATION_CNT=168'
p404
I1440
sS'SAMPLE_CNT_RESPDUST=15'
p405
I650
sS'SAMPLE_CNT_RESPDUST=14'
p406
I644
sS'VIOLATOR_VIOLATION_CNT=180'
p407
I1444
sS'INJ_ILLNESS=Fatal'
p408
I138
sS'SAMPLE_CNT_DUSTSURVEY=141'
p409
I516
sS'SAMPLE_CNT_DUSTSURVEY=148'
p410
I517
sS'NEGLIGENCE=LowNegligence'
p411
I179
sS'SAMPLE_CNT_AIR=3430'
p412
I458
sS'SAMPLE_CNT_NOISE=35'
p413
I598
sS'SAMPLE_CNT_NOISE=36'
p414
I601
sS'SAMPLE_CNT_NOISE=30'
p415
I593
sS'SAMPLE_CNT_NOISE=31'
p416
I594
sS'SAMPLE_CNT_NOISE=32'
p417
I595
sS'SAMPLE_CNT_NOISE=33'
p418
I596
sS'SAMPLE_CNT_NOISE=38'
p419
I602
sS'PRIMARY_OR_MILL=Mill'
p420
I298
sS'AVG_MINE_HEIGHT=65'
p421
I89
sS'AVG_MINE_HEIGHT=66'
p422
I90
sS'PRIMARY_CANVASS=Coal'
p423
I292
sS'AVG_MINE_HEIGHT=60'
p424
I88
sS'PROGRAM_AREA=Coal--NON-INJURY ACCIDENT INVESTIGATION'
p425
I372
sS'VIOLATOR_VIOLATION_CNT=212'
p426
I1451
sS'VIOLATOR_VIOLATION_CNT=211'
p427
I1450
sS'VIOLATOR_VIOLATION_CNT=214'
p428
I1452
sS'PRIMARY_SIC=Crushed, Broken Sandstone'
p429
I314
sS'SIG_SUB=Y'
p430
I741
sS'VIOLATOR_INSPECTION_DAY_CNT=90'
p431
I1398
sS'VIOLATOR_INSPECTION_DAY_CNT=91'
p432
I1399
sS'SIG_SUB=N'
p433
I740
sS'VIOLATOR_INSPECTION_DAY_CNT=96'
p434
I1401
sS'VIOLATOR_INSPECTION_DAY_CNT=97'
p435
I1402
sS'TOTAL_ON_SITE_HOURS=134'
p436
I977
sS'TOTAL_ON_SITE_HOURS=135'
p437
I978
sS'TOTAL_ON_SITE_HOURS=136'
p438
I979
sS'TOTAL_ON_SITE_HOURS=137'
p439
I980
sS'TOTAL_ON_SITE_HOURS=130'
p440
I975
sS'TOTAL_ON_SITE_HOURS=133'
p441
I976
sS'ACTIVITY=103 (g) Written Notification Hazard Complaint Inspectio'
p442
I7
sS'SAMPLE_CNT_AIR=84'
p443
I488
sS'VIOLATOR_VIOLATION_CNT=62'
p444
I1558
sS'TOTAL_ON_SITE_HOURS=225'
p445
I1035
sS'TOTAL_ON_SITE_HOURS=226'
p446
I1036
sS'TOTAL_INSP_HOURS=347'
p447
I834
sS'TOTAL_INSP_HOURS=346'
p448
I833
sS'VIOLATOR_INSPECTION_DAY_CNT=210'
p449
I1249
sS'VIOLATOR_INSPECTION_DAY_CNT=212'
p450
I1250
sS'VIOLATOR_INSPECTION_DAY_CNT=108'
p451
I1210
sS'VIOLATOR_INSPECTION_DAY_CNT=459'
p452
I1334
sS'VIOLATOR_INSPECTION_DAY_CNT=458'
p453
I1333
sS'VIOLATOR_INSPECTION_DAY_CNT=105'
p454
I1207
sS'VIOLATOR_INSPECTION_DAY_CNT=104'
p455
I1206
sS'VIOLATOR_INSPECTION_DAY_CNT=107'
p456
I1209
sS'VIOLATOR_INSPECTION_DAY_CNT=106'
p457
I1208
sS'VIOLATOR_INSPECTION_DAY_CNT=453'
p458
I1328
sS'VIOLATOR_INSPECTION_DAY_CNT=452'
p459
I1327
sS'VIOLATOR_INSPECTION_DAY_CNT=451'
p460
I1326
sS'VIOLATOR_INSPECTION_DAY_CNT=450'
p461
I1325
sS'SAMPLE_CNT_DUSTSURVEY=13'
p462
I514
sS'SAMPLE_CNT_DUSTSURVEY=12'
p463
I513
sS'SAMPLE_CNT_DUSTSURVEY=10'
p464
I507
sS'SAMPLE_CNT_DUSTSURVEY=17'
p465
I524
sS'SAMPLE_CNT_DUSTSURVEY=16'
p466
I521
sS'SAMPLE_CNT_DUSTSURVEY=15'
p467
I518
sS'SAMPLE_CNT_DUSTSURVEY=14'
p468
I515
sS'SAMPLE_CNT_DUSTSURVEY=18'
p469
I526
sS'TOTAL_ON_SITE_HOURS=353'
p470
I1063
sS'TOTAL_INSP_HOURS=120'
p471
I767
sS'TOTAL_INSP_HOURS=123'
p472
I769
sS'TOTAL_INSP_HOURS=122'
p473
I768
sS'TOTAL_INSP_HOURS=125'
p474
I771
sS'TOTAL_INSP_HOURS=124'
p475
I770
sS'TOTAL_INSP_HOURS=128'
p476
I772
sS'PROGRAM_AREA=M/NM--Non-Chargeable Accident Investigation'
p477
I408
sS'ACTIVITY=CODE-A-PHONE SPOT INSPECTION'
p478
I17
sS'SAMPLE_CNT_NOISE=115'
p479
I573
sS'AVG_MINE_HEIGHT=204'
p480
I70
sS'SAMPLE_CNT_NOISE=330'
p481
I597
sS'TOTAL_INSP_HOURS=45'
p482
I852
sS'TOTAL_INSP_HOURS=44'
p483
I851
sS'PROGRAM_AREA=M/NM--Non-Fatal Accident Investigation'
p484
I409
sS'TOTAL_INSP_HOURS=46'
p485
I854
sS'TOTAL_INSP_HOURS=41'
p486
I848
sS'TOTAL_INSP_HOURS=40'
p487
I844
sS'TOTAL_INSP_HOURS=43'
p488
I850
sS'TOTAL_INSP_HOURS=42'
p489
I849
sS'TOTAL_INSP_HOURS=49'
p490
I859
sS'TOTAL_INSP_HOURS=48'
p491
I858
sS'SAMPLE_CNT_RESPDUST=990'
p492
I733
sS'VIOLATOR_INSPECTION_DAY_CNT=48'
p493
I1352
sS'TOTAL_INSP_HOURS=39'
p494
I840
sS'TOTAL_ON_SITE_HOURS=78'
p495
I1137
sS'SAMPLE_CNT_AIR=1494'
p496
I434
sS'TOTAL_ON_SITE_HOURS=76'
p497
I1134
sS'SAMPLE_CNT_RESPDUST=38'
p498
I696
sS'TOTAL_ON_SITE_HOURS=77'
p499
I1136
sS'SAMPLE_CNT_RESPDUST=32'
p500
I690
sS'SAMPLE_CNT_RESPDUST=31'
p501
I689
sS'SAMPLE_CNT_DUSTSPOT=0'
p502
I495
sS'SAMPLE_CNT_RESPDUST=36'
p503
I694
sS'SAMPLE_CNT_RESPDUST=35'
p504
I692
sS'TOTAL_ON_SITE_HOURS=75'
p505
I1133
sS'TOTAL_ON_SITE_HOURS=72'
p506
I1130
sS'TOTAL_INSP_HOURS=31'
p507
I824
sS'ACTIVITY=103(i) Spot Inspections'
p508
I12
sS'SAMPLE_CNT_RESPDUST=1664'
p509
I657
sS'TOTAL_ON_SITE_HOURS=70'
p510
I1127
sS'TOTAL_ON_SITE_HOURS=71'
p511
I1129
sS'SAMPLE_CNT_AIR=18'
p512
I439
sS'SAMPLE_CNT_AIR=12'
p513
I428
sS'SAMPLE_CNT_AIR=10'
p514
I421
sS'SAMPLE_CNT_AIR=16'
p515
I438
sS'SAMPLE_CNT_AIR=15'
p516
I435
sS'VIOLATOR_INSPECTION_DAY_CNT=86'
p517
I1394
sS'VIOLATOR_VIOLATION_CNT=37'
p518
I1510
sS'VIOLATOR_VIOLATION_CNT=36'
p519
I1505
sS'VIOLATOR_VIOLATION_CNT=35'
p520
I1499
sS'NEGLIGENCE=ModNegligence'
p521
I180
sS'VIOLATOR_VIOLATION_CNT=33'
p522
I1490
sS'VIOLATOR_VIOLATION_CNT=32'
p523
I1483
sS'VIOLATOR_VIOLATION_CNT=31'
p524
I1480
sS'VIOLATOR_VIOLATION_CNT=30'
p525
I1473
sS'VIOLATOR_VIOLATION_CNT=39'
p526
I1523
sS'VIOLATOR_VIOLATION_CNT=38'
p527
I1516
sS'VIOLATOR_INSPECTION_DAY_CNT=85'
p528
I1393
sS'PRIMARY_SIC=Phosphate Rock'
p529
I339
sS'VIOLATOR_VIOLATION_CNT=371'
p530
I1511
sS'VIOLATOR_VIOLATION_CNT=373'
p531
I1512
sS'VIOLATOR_VIOLATION_CNT=377'
p532
I1513
sS'VIOLATOR_VIOLATION_CNT=379'
p533
I1515
sS'VIOLATOR_VIOLATION_CNT=378'
p534
I1514
sS'SAMPLE_CNT_AIR=837'
p535
I487
sS'VIOLATOR_VIOLATION_CNT=172'
p536
I1442
sS'ACTIVITY=Ventilation Technical Investigation'
p537
I61
sS'VIOLATOR_INSPECTION_DAY_CNT=83'
p538
I1391
sS'SAMPLE_CNT_DUSTSPOT=69'
p539
I502
sS'SAMPLE_CNT_DUSTSPOT=66'
p540
I501
sS'SAMPLE_CNT_RESPDUST=350'
p541
I693
sS'NO_EMPLOYEES=18'
p542
I217
sS'NO_EMPLOYEES=10'
p543
I207
sS'NO_EMPLOYEES=12'
p544
I210
sS'NO_EMPLOYEES=13'
p545
I211
sS'NO_EMPLOYEES=14'
p546
I212
sS'NO_EMPLOYEES=16'
p547
I213
sS'NO_EMPLOYEES=17'
p548
I215
sS'VIOLATOR_INSPECTION_DAY_CNT=82'
p549
I1390
sS'SAMPLE_CNT_DUSTSURVEY=198'
p550
I528
sS'NO_EMPLOYEES=179'
p551
I216
sS'SAMPLE_CNT_DUSTSURVEY=192'
p552
I527
sS'VIOLATOR_INSPECTION_DAY_CNT=81'
p553
I1389
sS'SAMPLE_CNT_RESPDUST=198'
p554
I667
sS'AVG_MINE_HEIGHT=50'
p555
I87
sS'VIOLATOR_VIOLATION_CNT=204'
p556
I1448
sS'SPECIAL_ASSESS=N'
p557
I742
sS'SPECIAL_ASSESS=Y'
p558
I743
sS'PRIMARY_SIC=Coal (Bituminous)'
p559
I305
sS'SAMPLE_CNT_RESPDUST=176'
p560
I661
sS'SAMPLE_CNT_RESPDUST=175'
p561
I660
sS'SAMPLE_CNT_RESPDUST=170'
p562
I659
sS'ACTIVITY=NONFATAL INJURY ACCIDENT INV'
p563
I34
sS'TOTAL_ON_SITE_HOURS=109'
p564
I954
sS'TOTAL_ON_SITE_HOURS=108'
p565
I953
sS'TOTAL_ON_SITE_HOURS=101'
p566
I946
sS'TOTAL_ON_SITE_HOURS=100'
p567
I945
sS'TOTAL_ON_SITE_HOURS=103'
p568
I948
sS'TOTAL_ON_SITE_HOURS=102'
p569
I947
sS'TOTAL_ON_SITE_HOURS=105'
p570
I950
sS'TOTAL_ON_SITE_HOURS=104'
p571
I949
sS'TOTAL_ON_SITE_HOURS=107'
p572
I952
sS'TOTAL_ON_SITE_HOURS=106'
p573
I951
sS'VIOLATOR_INSPECTION_DAY_CNT=75'
p574
I1384
sS'VIOLATOR_INSPECTION_DAY_CNT=79'
p575
I1387
sS'VIOLATOR_INSPECTION_DAY_CNT=206'
p576
I1247
sS'TOTAL_INSP_HOURS=332'
p577
I828
sS'TOTAL_ON_SITE_HOURS=211'
p578
I1031
sS'TOTAL_INSP_HOURS=335'
p579
I829
sS'TOTAL_ON_SITE_HOURS=213'
p580
I1032
sS'TOTAL_INSP_HOURS=337'
p581
I830
sS'TOTAL_INSP_HOURS=338'
p582
I831
sS'SAMPLE_CNT_DUSTSURVEY=3'
p583
I539
sS'SAMPLE_CNT_DUSTSURVEY=0'
p584
I506
sS'TOTAL_INSP_HRS_SPVR_TRAINEE=29'
p585
I931
sS'VIOLATOR_INSPECTION_DAY_CNT=119'
p586
I1218
sS'VIOLATOR_INSPECTION_DAY_CNT=448'
p587
I1322
sS'VIOLATOR_INSPECTION_DAY_CNT=449'
p588
I1323
sS'VIOLATOR_INSPECTION_DAY_CNT=89'
p589
I1396
sS'VIOLATOR_INSPECTION_DAY_CNT=88'
p590
I1395
sS'VIOLATOR_INSPECTION_DAY_CNT=444'
p591
I1319
sS'VIOLATOR_INSPECTION_DAY_CNT=445'
p592
I1320
sS'VIOLATOR_INSPECTION_DAY_CNT=110'
p593
I1212
sS'VIOLATOR_INSPECTION_DAY_CNT=111'
p594
I1213
sS'VIOLATOR_INSPECTION_DAY_CNT=116'
p595
I1216
sS'VIOLATOR_INSPECTION_DAY_CNT=441'
p596
I1317
sS'VIOLATOR_INSPECTION_DAY_CNT=442'
p597
I1318
sS'SAMPLE_CNT_DUSTSURVEY=26'
p598
I536
sS'SAMPLE_CNT_DUSTSURVEY=24'
p599
I533
sS'SAMPLE_CNT_DUSTSURVEY=25'
p600
I535
sS'SAMPLE_CNT_DUSTSURVEY=22'
p601
I531
sS'SAMPLE_CNT_DUSTSURVEY=23'
p602
I532
sS'SAMPLE_CNT_DUSTSURVEY=20'
p603
I529
sS'SAMPLE_CNT_DUSTSURVEY=28'
p604
I538
sS'TOTAL_ON_SITE_HOURS=210'
p605
I1030
sS'TOTAL_ON_SITE_HOURS=360'
p606
I1065
sS'SAMPLE_CNT_DUSTSURVEY=9'
p607
I563
sS'TOTAL_ON_SITE_HOURS=367'
p608
I1067
sS'TOTAL_ON_SITE_HOURS=366'
p609
I1066
sS'REFUSE_PILES=N'
p610
I418
sS'PRIMARY_SIC=Dimension Slate'
p611
I322
sS'PROGRAM_AREA=Coal--RESP DUST TECH INSP - SURFACE MINES'
p612
I379
sS'SAMPLE_CNT_NOISE=102'
p613
I570
sS'SAMPLE_CNT_NOISE=100'
p614
I569
sS'REFUSE_PILES=Y'
p615
I419
sS'TOTAL_ON_SITE_HOURS=94'
p616
I1156
sS'TOTAL_ON_SITE_HOURS=95'
p617
I1157
sS'TOTAL_INSP_HOURS=58'
p618
I871
sS'TOTAL_ON_SITE_HOURS=97'
p619
I1159
sS'TOTAL_ON_SITE_HOURS=90'
p620
I1152
sS'TOTAL_ON_SITE_HOURS=91'
p621
I1153
sS'TOTAL_ON_SITE_HOURS=92'
p622
I1154
sS'TOTAL_ON_SITE_HOURS=93'
p623
I1155
sS'TOTAL_INSP_HOURS=52'
p624
I863
sS'TOTAL_INSP_HOURS=53'
p625
I864
sS'TOTAL_INSP_HOURS=50'
p626
I861
sS'TOTAL_INSP_HOURS=51'
p627
I862
sS'TOTAL_ON_SITE_HOURS=98'
p628
I1160
sS'TOTAL_ON_SITE_HOURS=99'
p629
I1161
sS'TOTAL_INSP_HOURS=54'
p630
I865
sS'TOTAL_INSP_HOURS=55'
p631
I868
sS'VIOLATOR_INSPECTION_DAY_CNT=112'
p632
I1214
sS'ACTIVITY=Electrical Technical Investigation'
p633
I23
sS'VIOLATOR_INSPECTION_DAY_CNT=179'
p634
I1238
sS'SAMPLE_CNT_RESPDUST=984'
p635
I732
sS'VIOLATOR_INSPECTION_DAY_CNT=113'
p636
I1215
sS'VIOLATOR_INSPECTION_DAY_CNT=446'
p637
I1321
sS'VIOLATOR_INSPECTION_DAY_CNT=84'
p638
I1392
sS'ACTIVITY=FREE SILICA TECHNICAL INVESTIGATION'
p639
I24
sS'PROGRAM_AREA=Coal--SAFETY & HEALTH (SATURATION) INSP'
p640
I389
sS'VIOLATOR_INSPECTION_DAY_CNT=117'
p641
I1217
sS'SAMPLE_CNT_NOISE=252'
p642
I589
sS'ACTIVITY=HAULAGE TECHNICAL INSPECTION'
p643
I26
sS'SAMPLE_CNT_RESPDUST=1278'
p644
I638
sS'TOTAL_INSP_HOURS=469'
p645
I855
sS'SAMPLE_CNT_RESPDUST=1494'
p646
I649
sS'SAMPLE_CNT_AIR=27'
p647
I451
sS'SAMPLE_CNT_AIR=24'
p648
I446
sS'SAMPLE_CNT_AIR=22'
p649
I445
sS'SAMPLE_CNT_AIR=20'
p650
I442
sS'PORTABLE_FIPS_ST_CD='
p651
I251
sS'PRIMARY_SIC=Amethyst'
p652
I300
sS'PROGRAM_AREA=M/NM--COMPLIANCE FOLLOW-UP INSPECTION'
p653
I403
sS'VIOLATOR_VIOLATION_CNT=28'
p654
I1465
sS'VIOLATOR_VIOLATION_CNT=29'
p655
I1467
sS'VIOLATOR_VIOLATION_CNT=20'
p656
I1447
sS'VIOLATOR_VIOLATION_CNT=21'
p657
I1449
sS'VIOLATOR_VIOLATION_CNT=22'
p658
I1454
sS'VIOLATOR_VIOLATION_CNT=23'
p659
I1455
sS'VIOLATOR_VIOLATION_CNT=24'
p660
I1456
sS'VIOLATOR_VIOLATION_CNT=25'
p661
I1458
sS'VIOLATOR_VIOLATION_CNT=26'
p662
I1459
sS'VIOLATOR_VIOLATION_CNT=27'
p663
I1461
sS'VIOLATOR_VIOLATION_CNT=345'
p664
I1497
sS'VIOLATOR_VIOLATION_CNT=346'
p665
I1498
sS'VIOLATOR_VIOLATION_CNT=341'
p666
I1495
sS'VIOLATOR_VIOLATION_CNT=343'
p667
I1496
sS'SAMPLE_CNT_AIR=1024'
p668
I423
sS'SAMPLE_CNT_DUSTSPOT=71'
p669
I504
sS'SAMPLE_CNT_DUSTSPOT=70'
p670
I503
sS'NO_EMPLOYEES=25'
p671
I224
sS'NO_EMPLOYEES=24'
p672
I223
sS'NO_EMPLOYEES=27'
p673
I226
sS'NO_EMPLOYEES=26'
p674
I225
sS'NO_EMPLOYEES=21'
p675
I220
sS'NO_EMPLOYEES=20'
p676
I219
sS'NO_EMPLOYEES=22'
p677
I222
sS'NO_EMPLOYEES=29'
p678
I229
sS'NO_EMPLOYEES=28'
p679
I228
sS'VIOLATOR_VIOLATION_CNT=87'
p680
I1577
sS'VIOLATOR_VIOLATION_CNT=85'
p681
I1575
sS'SAMPLE_CNT_NOISE=18'
p682
I585
sS'NO_EMPLOYEES=164'
p683
I214
sS'SAMPLE_CNT_NOISE=16'
p684
I582
sS'SAMPLE_CNT_NOISE=14'
p685
I579
sS'SAMPLE_CNT_DUSTSURVEY=1062'
p686
I510
sS'ACTIVITY=NON-INJURY ACCIDENT INVESTIGATION'
p687
I33
sS'SAMPLE_CNT_NOISE=24'
p688
I587
sS'SAMPLE_CNT_AIR=150'
p689
I436
sS'SAMPLE_CNT_AIR=154'
p690
I437
sS'SAMPLE_CNT_RESPDUST=189'
p691
I666
sS'SAMPLE_CNT_AIR=712'
p692
I481
sS'PROGRAM_AREA=Coal--Spot Inspection'
p693
I392
sS'AVG_MINE_HEIGHT=48'
p694
I85
sS'AVG_MINE_HEIGHT=46'
p695
I84
sS'AVG_MINE_HEIGHT=45'
p696
I83
sS'AVG_MINE_HEIGHT=44'
p697
I82
sS'AVG_MINE_HEIGHT=43'
p698
I81
sS'AVG_MINE_HEIGHT=42'
p699
I80
sS'SAMPLE_CNT_RESPDUST=184'
p700
I664
sS'AVG_MINE_HEIGHT=40'
p701
I79
sS'VIOLATOR_INSPECTION_DAY_CNT=8'
p702
I1388
sS'VIOLATOR_INSPECTION_DAY_CNT=9'
p703
I1397
sS'VIOLATOR_INSPECTION_DAY_CNT=6'
p704
I1368
sS'VIOLATOR_INSPECTION_DAY_CNT=7'
p705
I1378
sS'VIOLATOR_INSPECTION_DAY_CNT=4'
p706
I1290
sS'VIOLATOR_INSPECTION_DAY_CNT=5'
p707
I1359
sS'VIOLATOR_INSPECTION_DAY_CNT=2'
p708
I1245
sS'VIOLATOR_INSPECTION_DAY_CNT=3'
p709
I1267
sS'VIOLATOR_INSPECTION_DAY_CNT=0'
p710
I1201
sS'VIOLATOR_INSPECTION_DAY_CNT=1'
p711
I1202
sS'SAMPLE_CNT_RESPDUST=165'
p712
I656
sS'SAMPLE_CNT_RESPDUST=160'
p713
I654
sS'SAMPLE_CNT_RESPDUST=162'
p714
I655
sS'SAMPLE_CNT_RESPDUST=168'
p715
I658
sS'PROGRAM_AREA=Coal--ELECTRICAL INSPECTION'
p716
I362
sS'SAMPLE_CNT_DUSTSURVEY=4895'
p717
I552
sS'SAMPLE_CNT_AIR=48'
p718
I466
sS'PROGRAM_AREA=M/NM--Regular Safety and Health Inspection'
p719
I413
sS'SAMPLE_CNT_DUSTSURVEY=31'
p720
I541
sS'SAMPLE_CNT_DUSTSURVEY=30'
p721
I540
sS'SAMPLE_CNT_DUSTSURVEY=32'
p722
I542
sS'SAMPLE_CNT_DUSTSURVEY=36'
p723
I545
sS'TOTAL_ON_SITE_HOURS=202'
p724
I1026
sS'TOTAL_ON_SITE_HOURS=200'
p725
I1025
sS'TOTAL_INSP_HOURS=320'
p726
I826
sS'TOTAL_ON_SITE_HOURS=206'
p727
I1028
sS'TOTAL_ON_SITE_HOURS=204'
p728
I1027
sS'VIOLATOR_INSPECTION_DAY_CNT=479'
p729
I1351
sS'VIOLATOR_INSPECTION_DAY_CNT=478'
p730
I1350
sS'TOTAL_ON_SITE_HOURS=114'
p731
I960
sS'TOTAL_ON_SITE_HOURS=115'
p732
I961
sS'TOTAL_ON_SITE_HOURS=112'
p733
I958
sS'TOTAL_ON_SITE_HOURS=113'
p734
I959
sS'TOTAL_ON_SITE_HOURS=110'
p735
I956
sS'TOTAL_ON_SITE_HOURS=111'
p736
I957
sS'VIOLATOR_INSPECTION_DAY_CNT=471'
p737
I1346
sS'VIOLATOR_INSPECTION_DAY_CNT=470'
p738
I1345
sS'VIOLATOR_INSPECTION_DAY_CNT=473'
p739
I1347
sS'VIOLATOR_INSPECTION_DAY_CNT=475'
p740
I1348
sS'VIOLATOR_INSPECTION_DAY_CNT=477'
p741
I1349
sS'SAMPLE_CNT_NOISE=105'
p742
I572
sS'TOTAL_ON_SITE_HOURS=378'
p743
I1070
sS'PART48_TRAINING=N'
p744
I248
sS'TOTAL_INSP_HOURS=254'
p745
I813
sS'TOTAL_INSP_HOURS=253'
p746
I812
sS'ACTIVITY=Non-Injury Accident Investigation'
p747
I37
sS'TOTAL_INSP_HOURS=250'
p748
I811
sS'VIOLATOR_INSPECTION_DAY_CNT=304'
p749
I1269
sS'PART48_TRAINING=Y'
p750
I249
sS'ACTIVITY=Compliance Follow-up Inspection'
p751
I19
sS'SAMPLE_CNT_NOISE=135'
p752
I578
sS'SAMPLE_CNT_NOISE=130'
p753
I577
sS'SAMPLE_CNT_NOISE=483'
p754
I607
sS'VIOLATOR_VIOLATION_CNT=47'
p755
I1543
sS'VIOLATOR_VIOLATION_CNT=44'
p756
I1540
sS'TOTAL_ON_SITE_HOURS=83'
p757
I1143
sS'TOTAL_ON_SITE_HOURS=82'
p758
I1142
sS'TOTAL_ON_SITE_HOURS=81'
p759
I1141
sS'TOTAL_ON_SITE_HOURS=80'
p760
I1140
sS'TOTAL_ON_SITE_HOURS=87'
p761
I1148
sS'TOTAL_ON_SITE_HOURS=86'
p762
I1147
sS'TOTAL_ON_SITE_HOURS=85'
p763
I1146
sS'TOTAL_ON_SITE_HOURS=84'
p764
I1145
sS'TOTAL_INSP_HOURS=27'
p765
I817
sS'TOTAL_INSP_HOURS=26'
p766
I814
sS'TOTAL_ON_SITE_HOURS=89'
p767
I1150
sS'TOTAL_ON_SITE_HOURS=88'
p768
I1149
sS'TOTAL_INSP_HOURS=23'
p769
I807
sS'TOTAL_INSP_HOURS=22'
p770
I804
sS'TOTAL_INSP_HOURS=21'
p771
I801
sS'TOTAL_INSP_HOURS=20'
p772
I800
sS'NBR_INSPECTORS=0'
p773
I161
sS'NBR_INSPECTORS=1'
p774
I162
sS'PROGRAM_AREA=M/NM--ATTEMPTED INSPECTION (DENIAL OF ENTRY)'
p775
I402
sS'NBR_INSPECTORS=3'
p776
I170
sS'NBR_INSPECTORS=4'
p777
I171
sS'NBR_INSPECTORS=5'
p778
I172
sS'NBR_INSPECTORS=6'
p779
I173
sS'NBR_INSPECTORS=7'
p780
I174
sS'NBR_INSPECTORS=8'
p781
I175
sS'NBR_INSPECTORS=9'
p782
I176
sS'TOTAL_INSP_HOURS=475'
p783
I857
sS'SAMPLE_CNT_AIR=1121'
p784
I427
sS'ACTIVITY=ELECTRICAL INVESTIGATION'
p785
I21
sS'SAMPLE_CNT_DUSTSURVEY=3224'
p786
I543
sS'SAMPLE_CNT_RESPDUST=1485'
p787
I648
sS'LIKELIHOOD=Unlikely'
p788
I147
sS'PRIMARY_SIC=Misc. Metal Ore NEC'
p789
I337
sS'SAMPLE_CNT_AIR=32'
p790
I456
sS'ACTIVITY=ROOF CONTROL TECHNICAL INVESTIGTION'
p791
I49
sS'SAMPLE_CNT_AIR=36'
p792
I460
sS'SAMPLE_CNT_AIR=39'
p793
I461
sS'TOTAL_ON_SITE_HOURS=96'
p794
I1158
sS'VIOLATOR_VIOLATION_CNT=326'
p795
I1487
sS'TOTAL_INSP_HOURS=59'
p796
I872
sS'VIOLATOR_VIOLATION_CNT=59'
p797
I1555
sS'VIOLATOR_VIOLATION_CNT=58'
p798
I1554
sS'PRIMARY_SIC=Crushed, Broken Stone NEC'
p799
I316
sS'VIOLATOR_VIOLATION_CNT=55'
p800
I1551
sS'VIOLATOR_VIOLATION_CNT=54'
p801
I1550
sS'VIOLATOR_VIOLATION_CNT=57'
p802
I1553
sS'VIOLATOR_VIOLATION_CNT=56'
p803
I1552
sS'PRIMARY_CANVASS=Stone'
p804
I296
sS'VIOLATOR_VIOLATION_CNT=53'
p805
I1549
sS'VIOLATOR_VIOLATION_CNT=52'
p806
I1548
sS'VIOLATOR_INSPECTION_DAY_CNT=131'
p807
I1224
sS'PROGRAM_AREA=M/NM--VERBAL HAZARD COMPLAINT'
p808
I416
sS'SAMPLE_CNT_AIR=852'
p809
I489
sS'VIOLATOR_VIOLATION_CNT=358'
p810
I1504
sS'VIOLATOR_VIOLATION_CNT=352'
p811
I1501
sS'VIOLATOR_VIOLATION_CNT=350'
p812
I1500
sS'VIOLATOR_VIOLATION_CNT=357'
p813
I1503
sS'VIOLATOR_VIOLATION_CNT=356'
p814
I1502
sS'TOTAL_INSP_HOURS=56'
p815
I869
sS'TOTAL_INSP_HOURS=57'
p816
I870
sS'NEGLIGENCE=NoNegligence'
p817
I181
sS'PRIMARY_SIC=Coal (Anthracite)'
p818
I304
sS'PROD_SHIFTS_PER_DAY=8'
p819
I353
sS'NO_EMPLOYEES=30'
p820
I231
sS'NO_EMPLOYEES=36'
p821
I232
sS'NO_EMPLOYEES=37'
p822
I233
sS'PROD_SHIFTS_PER_DAY=0'
p823
I347
sS'PROD_SHIFTS_PER_DAY=1'
p824
I348
sS'NO_EMPLOYEES=38'
p825
I234
sS'PROD_SHIFTS_PER_DAY=3'
p826
I350
sS'PROD_SHIFTS_PER_DAY=5'
p827
I351
sS'PROD_SHIFTS_PER_DAY=6'
p828
I352
sS'PROGRAM_AREA=M/NM--REGULAR INSPECTION'
p829
I412
sS'SAMPLE_CNT_AIR=140'
p830
I432
sS'TOTAL_ON_SITE_HRS_SPVR_TRAINEE=0'
p831
I1163
sS'LIKELIHOOD=Highly'
p832
I143
sS'SAMPLE_CNT_AIR=708'
p833
I480
sS'PROGRAM_AREA=M/NM--Mine Idle Activity'
p834
I407
sS'PROGRAM_AREA=M/NM--MISCELLANEOUS INSPECTION/INVESTIGATION'
p835
I406
sS'SAMPLE_CNT_RESPDUST=150'
p836
I651
sS'PROGRAM_AREA=Coal--Electrical Technical Investigation'
p837
I365
sS'SAMPLE_CNT_RESPDUST=155'
p838
I652
sS'SAMPLE_CNT_AIR=0'
p839
I420
sS'PROGRAM_AREA=Coal--Part 50 Audit'
p840
I378
sS'SAMPLE_CNT_AIR=3'
p841
I454
sS'SAMPLE_CNT_AIR=4'
p842
I462
sS'SAMPLE_CNT_AIR=7'
p843
I479
sS'TOTAL_INSP_HRS_SPVR_TRAINEE=2'
p844
I926
sS'TOTAL_INSP_HRS_SPVR_TRAINEE=3'
p845
I932
sS'TOTAL_INSP_HRS_SPVR_TRAINEE=0'
p846
I914
sS'TOTAL_INSP_HRS_SPVR_TRAINEE=1'
p847
I915
sS'TOTAL_INSP_HRS_SPVR_TRAINEE=6'
p848
I938
sS'TOTAL_INSP_HRS_SPVR_TRAINEE=7'
p849
I939
sS'TOTAL_INSP_HRS_SPVR_TRAINEE=4'
p850
I935
sS'TOTAL_INSP_HRS_SPVR_TRAINEE=5'
p851
I937
sS'TOTAL_INSP_HRS_SPVR_TRAINEE=8'
p852
I940
sS'TOTAL_INSP_HRS_SPVR_TRAINEE=9'
p853
I941
sS'SAMPLE_CNT_AIR=451'
p854
I464
sS'SAMPLE_CNT_DUSTSURVEY=48'
p855
I550
sS'PROGRAM_AREA=Coal--CODE-A-PHONE SPOT INSPECTION'
p856
I361
sS'TOTAL_ON_SITE_HOURS=566'
p857
I1107
sS'SAMPLE_CNT_DUSTSURVEY=46'
p858
I548
sS'SAMPLE_CNT_DUSTSURVEY=47'
p859
I549
sS'SAMPLE_CNT_DUSTSURVEY=40'
p860
I546
sS'SAMPLE_CNT_DUSTSURVEY=42'
p861
I547
sS'VIOLATOR_INSPECTION_DAY_CNT=263'
p862
I1261
sS'TOTAL_ON_SITE_HOURS=768'
p863
I1135
sS'TOTAL_ON_SITE_HOURS=163'
p864
I1001
sS'VIOLATOR_INSPECTION_DAY_CNT=467'
p865
I1341
sS'TOTAL_ON_SITE_HOURS=161'
p866
I1000
sS'TOTAL_ON_SITE_HOURS=160'
p867
I999
sS'VIOLATOR_INSPECTION_DAY_CNT=462'
p868
I1337
sS'TOTAL_ON_SITE_HOURS=166'
p869
I1003
sS'VIOLATOR_INSPECTION_DAY_CNT=460'
p870
I1336
sS'TOTAL_ON_SITE_HOURS=164'
p871
I1002
sS'TOTAL_ON_SITE_HOURS=169'
p872
I1006
sS'TOTAL_ON_SITE_HOURS=168'
p873
I1005
sS'VIOLATOR_INSPECTION_DAY_CNT=468'
p874
I1342
sS'VIOLATOR_INSPECTION_DAY_CNT=469'
p875
I1343
sS'VIOLATOR_INSPECTION_DAY_CNT=18'
p876
I1239
sS'TOTAL_INSP_HOURS=260'
p877
I815
sS'TOTAL_INSP_HOURS=267'
p878
I816
sS'VIOLATOR_INSPECTION_DAY_CNT=319'
p879
I1272
sS'VIOLATOR_INSPECTION_DAY_CNT=317'
p880
I1271
sS'SAMPLE_CNT_RESPDUST=2071'
p881
I669
sS'SAMPLE_CNT_NOISE=120'
p882
I574
sS'SAMPLE_CNT_NOISE=125'
p883
I576
sS'SAMPLE_CNT_RESPDUST=9'
p884
I725
sS'TOTAL_ON_SITE_HOURS=415'
p885
I1080
sS'TOTAL_ON_SITE_HOURS=414'
p886
I1079
sS'SAMPLE_CNT_RESPDUST=0'
p887
I626
sS'SAMPLE_CNT_RESPDUST=3'
p888
I686
sS'SAMPLE_CNT_NOISE=490'
p889
I608
sS'ACTIVITY=RESP DUST TECHNICAL INVESTIGATION'
p890
I45
sS'VIOLATOR_INSPECTION_DAY_CNT=70'
p891
I1379
sS'TOTAL_INSP_HOURS=38'
p892
I839
sS'PRIMARY_OR_MILL=Primary'
p893
I299
sS'PROGRAM_AREA=Coal--Non-Injury Accident Investigation'
p894
I375
sS'TOTAL_ON_SITE_HOURS=79'
p895
I1138
sS'TOTAL_INSP_HOURS=34'
p896
I832
sS'TOTAL_INSP_HOURS=35'
p897
I835
sS'TOTAL_INSP_HOURS=36'
p898
I836
sS'TOTAL_INSP_HOURS=37'
p899
I837
sS'TOTAL_INSP_HOURS=30'
p900
I823
sS'TOTAL_ON_SITE_HOURS=73'
p901
I1131
sS'TOTAL_INSP_HOURS=32'
p902
I825
sS'TOTAL_INSP_HOURS=33'
p903
I827
sS'SAMPLE_CNT_RESPDUST=1254'
p904
I636
sS'SAMPLE_CNT_RESPDUST=88'
p905
I724
sS'SAMPLE_CNT_RESPDUST=84'
p906
I722
sS'SAMPLE_CNT_AIR=45'
p907
I463
sS'VIOLATOR_VIOLATION_CNT=8'
p908
I1571
sS'PORTABLE_FIPS_ST_CD=50'
p909
I284
sS'PORTABLE_FIPS_ST_CD=51'
p910
I285
sS'PORTABLE_FIPS_ST_CD=53'
p911
I286
sS'PORTABLE_FIPS_ST_CD=54'
p912
I287
sS'PORTABLE_FIPS_ST_CD=55'
p913
I288
sS'PORTABLE_FIPS_ST_CD=56'
p914
I289
sS'PROGRAM_AREA=Coal--103(I) SPOT (5-DAY) INSPECTION'
p915
I358
sS'VIOLATOR_VIOLATION_CNT=48'
p916
I1544
sS'VIOLATOR_VIOLATION_CNT=49'
p917
I1545
sS'VIOLATOR_VIOLATION_CNT=46'
p918
I1542
sS'SHAFT_SLOPE_SINK=2'
p919
I738
sS'SHAFT_SLOPE_SINK=1'
p920
I737
sS'SHAFT_SLOPE_SINK=0'
p921
I736
sS'VIOLATOR_VIOLATION_CNT=42'
p922
I1537
sS'VIOLATOR_VIOLATION_CNT=43'
p923
I1539
sS'VIOLATOR_VIOLATION_CNT=40'
p924
I1530
sS'VIOLATOR_VIOLATION_CNT=41'
p925
I1536
sS'VIOLATOR_VIOLATION_CNT=328'
p926
I1489
sS'PRIMARY_OR_MILL='
p927
I297
sS'VIOLATOR_VIOLATION_CNT=327'
p928
I1488
sS'VIOLATOR_VIOLATION_CNT=324'
p929
I1486
sS'VIOLATOR_VIOLATION_CNT=323'
p930
I1485
sS'VIOLATOR_VIOLATION_CNT=321'
p931
I1484
sS'PRIMARY_SIC=Crushed, Broken Traprock'
p932
I317
sS'SAMPLE_CNT_DUSTSURVEY=272'
p933
I537
sS'TOTAL_ON_SITE_HRS_SPVR_TRAINEE=1'
p934
I1164
sS'TOTAL_ON_SITE_HRS_SPVR_TRAINEE=2'
p935
I1175
sS'TOTAL_ON_SITE_HRS_SPVR_TRAINEE=3'
p936
I1182
sS'TOTAL_ON_SITE_HRS_SPVR_TRAINEE=4'
p937
I1186
sS'TOTAL_ON_SITE_HRS_SPVR_TRAINEE=5'
p938
I1189
sS'TOTAL_ON_SITE_HRS_SPVR_TRAINEE=6'
p939
I1193
sS'TOTAL_ON_SITE_HRS_SPVR_TRAINEE=7'
p940
I1195
sS'TOTAL_ON_SITE_HRS_SPVR_TRAINEE=8'
p941
I1196
sS'TOTAL_ON_SITE_HRS_SPVR_TRAINEE=9'
p942
I1197
sS'PROGRAM_AREA=Coal--Other Technical Compliance Investigations'
p943
I376
sS'PROGRAM_AREA=Coal--HAULAGE TECHNICAL INSPECTION'
p944
I368
sS'ACTIVITY=COMPLIANCE FOLLOW-UP INSPECTION'
p945
I18
sS'SAMPLE_CNT_DUSTSPOT=55'
p946
I500
sS'SAMPLE_CNT_RESPDUST=360'
p947
I695
sS'CONTESTED_IND=Y'
p948
I100
sS'PRIMARY_CANVASS=SandAndGravel'
p949
I295
sS'MINE_TYPE=Underground'
p950
I156
sS'NO_EMPLOYEES=50'
p951
I240
sS'CONTESTED_IND=N'
p952
I99
sS'SAMPLE_CNT_RESPDUST=144'
p953
I646
sS'SAMPLE_CNT_RESPDUST=140'
p954
I645
sS'AVG_MINE_HEIGHT=84'
p955
I93
sS'SAMPLE_CNT_AIR=510'
p956
I468
sS'SAMPLE_CNT_RESPDUST=782'
p957
I720
sS'SAMPLE_CNT_DUSTSURVEY=58'
p958
I555
sS'PROGRAM_AREA=Coal--103(G)(1) SPOT INSPECTION'
p959
I355
sS'SAMPLE_CNT_DUSTSURVEY=52'
p960
I554
sS'SAMPLE_CNT_DUSTSURVEY=50'
p961
I553
sS'VIOLATOR_INSPECTION_DAY_CNT=412'
p962
I1294
sS'TOTAL_ON_SITE_HOURS=172'
p963
I1009
sS'TOTAL_ON_SITE_HOURS=173'
p964
I1010
sS'TOTAL_ON_SITE_HOURS=174'
p965
I1011
sS'TOTAL_ON_SITE_HOURS=175'
p966
I1012
sS'TOTAL_ON_SITE_HOURS=176'
p967
I1013
sS'TOTAL_ON_SITE_HOURS=178'
p968
I1014
sS'VIOLATOR_INSPECTION_DAY_CNT=419'
p969
I1296
sS'BLDG_CONSTR_SITES=0'
p970
I94
sS'BLDG_CONSTR_SITES=1'
p971
I95
sS'SAMPLE_CNT_AIR=192'
p972
I441
sS'BLDG_CONSTR_SITES=3'
p973
I96
sS'TOTAL_ON_SITE_HOURS=318'
p974
I1057
sS'VIOLATOR_INSPECTION_DAY_CNT=38'
p975
I1282
sS'VIOLATOR_INSPECTION_DAY_CNT=39'
p976
I1285
sS'VIOLATOR_INSPECTION_DAY_CNT=36'
p977
I1280
sS'VIOLATOR_INSPECTION_DAY_CNT=35'
p978
I1279
sS'VIOLATOR_INSPECTION_DAY_CNT=32'
p979
I1273
sS'VIOLATOR_INSPECTION_DAY_CNT=33'
p980
I1277
sS'VIOLATOR_INSPECTION_DAY_CNT=30'
p981
I1268
sS'VIOLATOR_INSPECTION_DAY_CNT=31'
p982
I1270
sS'VIOLATOR_INSPECTION_DAY_CNT=328'
p983
I1276
sS'PRIMARY_SIC=Lead-Zinc Ore'
p984
I333
sS'VIOLATOR_INSPECTION_DAY_CNT=320'
p985
I1274
sS'VIOLATOR_INSPECTION_DAY_CNT=324'
p986
I1275
sS'TOTAL_INSP_HOURS=186'
p987
I795
sS'VIOLATOR_INSPECTION_DAY_CNT=250'
p988
I1259
sS'TOTAL_ON_SITE_HOURS=406'
p989
I1077
sS'TOTAL_ON_SITE_HOURS=401'
p990
I1076
sS'SAMPLE_CNT_NOISE=460'
p991
I606
sS'TOTAL_ON_SITE_HOURS=69'
p992
I1125
sS'TOTAL_ON_SITE_HOURS=68'
p993
I1124
sS'TOTAL_ON_SITE_HOURS=65'
p994
I1119
sS'TOTAL_ON_SITE_HOURS=64'
p995
I1118
sS'TOTAL_ON_SITE_HOURS=67'
p996
I1121
sS'TOTAL_ON_SITE_HOURS=66'
p997
I1120
sS'TOTAL_ON_SITE_HOURS=61'
p998
I1114
sS'TOTAL_ON_SITE_HOURS=60'
p999
I1112
sS'TOTAL_ON_SITE_HOURS=63'
p1000
I1116
sS'TOTAL_ON_SITE_HOURS=62'
p1001
I1115
sS'MULTIPLE_PITS=Y'
p1002
I160
sS'PRIMARY_SIC=Gemstones'
p1003
I326
sS'NEGLIGENCE='
p1004
I177
sS'SAMPLE_CNT_NOISE=0'
p1005
I567
sS'SAMPLE_CNT_NOISE=205'
p1006
I586
sS'MAINT_SHIFTS_PER_DAY=1'
p1007
I149
sS'MAINT_SHIFTS_PER_DAY=0'
p1008
I148
sS'MAINT_SHIFTS_PER_DAY=2'
p1009
I150
sS'MAINT_SHIFTS_PER_DAY=8'
p1010
I151
sS'SAMPLE_CNT_AIR=1452'
p1011
I433
sS'TOTAL_INSP_HOURS=452'
p1012
I853
sS'PORTABLE_FIPS_ST_CD=46'
p1013
I281
sS'PORTABLE_FIPS_ST_CD=42'
p1014
I280
sS'PORTABLE_FIPS_ST_CD=41'
p1015
I279
sS'PORTABLE_FIPS_ST_CD=40'
p1016
I278
sS'PORTABLE_FIPS_ST_CD=49'
p1017
I283
sS'PORTABLE_FIPS_ST_CD=48'
p1018
I282
sS'SAMPLE_CNT_RESPDUST=98'
p1019
I731
sS'SAMPLE_CNT_RESPDUST=91'
p1020
I728
sS'SAMPLE_CNT_RESPDUST=90'
p1021
I726
sS'SAMPLE_CNT_RESPDUST=95'
p1022
I729
sS'SAMPLE_CNT_RESPDUST=96'
p1023
I730
sS'SAMPLE_CNT_AIR=56'
p1024
I471
sS'SAMPLE_CNT_AIR=54'
p1025
I470
sS'SAMPLE_CNT_AIR=52'
p1026
I469
sS'SAMPLE_CNT_AIR=51'
p1027
I467
sS'VIOLATOR_VIOLATION_CNT=72'
p1028
I1566
sS'VIOLATOR_VIOLATION_CNT=70'
p1029
I1565
sS'VIOLATOR_VIOLATION_CNT=76'
p1030
I1568
sS'VIOLATOR_VIOLATION_CNT=74'
p1031
I1567
sS'VIOLATOR_VIOLATION_CNT=79'
p1032
I1570
sS'VIOLATOR_VIOLATION_CNT=78'
p1033
I1569
sS'PRIMARY_CANVASS=Nonmetal'
p1034
I294
sS'PROGRAM_AREA=Coal--ELECTRICAL INVESTIGATION'
p1035
I363
sS'SAMPLE_CNT_AIR=872'
p1036
I490
sS'VIOLATOR_VIOLATION_CNT=334'
p1037
I1493
sS'VIOLATOR_VIOLATION_CNT=333'
p1038
I1492
sS'VIOLATOR_VIOLATION_CNT=332'
p1039
I1491
sS'ACTIVITY=Fatal Accident Investigation'
p1040
I25
sS'PROGRAM_AREA=Coal--103(i) Spot Inspections'
p1041
I359
sS'PROGRAM_AREA=Coal--SPOT INSPECTION'
p1042
I390
sS'SAMPLE_CNT_RESPDUST=4984'
p1043
I704
sS'PROGRAM_AREA=M/NM--SPECIAL ENFORCEMENT 3'
p1044
I414
sS'SAMPLE_CNT_RESPDUST=224'
p1045
I673
sS'PROGRAM_AREA=Coal--VENTILATION TECHNICAL INVESTIGATION'
p1046
I394
sS'SAMPLE_CNT_DUSTSPOT=22'
p1047
I498
sS'SAMPLE_CNT_DUSTSPOT=20'
p1048
I497
sS'VIOLATOR_VIOLATION_CNT=240'
p1049
I1457
sS'VIOLATOR_INSPECTION_DAY_CNT=49'
p1050
I1358
sS'NO_EMPLOYEES=1'
p1051
I206
sS'VIOLATOR_VIOLATION_CNT=91'
p1052
I1581
sS'VIOLATOR_VIOLATION_CNT=90'
p1053
I1580
sS'VIOLATOR_VIOLATION_CNT=93'
p1054
I1582
sS'VIOLATOR_VIOLATION_CNT=95'
p1055
I1584
sS'VIOLATOR_VIOLATION_CNT=94'
p1056
I1583
sS'TOTAL_ON_SITE_HOURS=676'
p1057
I1122
sS'SAMPLE_CNT_AIR=297'
p1058
I453
sS'SAMPLE_CNT_RESPDUST=138'
p1059
I643
sS'SAMPLE_CNT_RESPDUST=132'
p1060
I641
sS'SAMPLE_CNT_RESPDUST=130'
p1061
I640
sS'SAMPLE_CNT_RESPDUST=135'
p1062
I642
sS'PRIMARY_SIC=Silver Ore'
p1063
I346
sS'NO_EMPLOYEES=8'
p1064
I243
sS'VIOLATOR_INSPECTION_DAY_CNT=40'
p1065
I1291
sS'ACTIVITY=103(I) SPOT (5-DAY) INSPECTION'
p1066
I11
sS'PROGRAM_AREA=Coal--FREE SILICA TECHNICAL INVESTIGATION'
p1067
I366
sS'SAMPLE_CNT_DUSTSURVEY=62'
p1068
I557
sS'SAMPLE_CNT_DUSTSURVEY=60'
p1069
I556
sS'PRIMARY_SIC=Dimension Quartzite'
p1070
I320
sS'TOTAL_ON_SITE_HOURS=171'
p1071
I1008
sS'SAMPLE_CNT_AIR=470'
p1072
I465
sS'VIOLATOR_INSPECTION_DAY_CNT=416'
p1073
I1295
sS'TOTAL_ON_SITE_HOURS=149'
p1074
I990
sS'ACTIVITY=Spot Inspection'
p1075
I57
sS'VIOLATOR_INSPECTION_DAY_CNT=408'
p1076
I1292
sS'TOTAL_ON_SITE_HOURS=144'
p1077
I987
sS'TOTAL_ON_SITE_HOURS=146'
p1078
I988
sS'TOTAL_ON_SITE_HOURS=141'
p1079
I984
sS'TOTAL_ON_SITE_HOURS=140'
p1080
I983
sS'TOTAL_ON_SITE_HOURS=143'
p1081
I986
sS'TOTAL_ON_SITE_HOURS=142'
p1082
I985
sS'SAMPLE_CNT_AIR=180'
p1083
I440
sS'PORTABLE_FIPS_ST_CD=21'
p1084
I264
sS'VIOLATOR_INSPECTION_DAY_CNT=29'
p1085
I1264
sS'VIOLATOR_INSPECTION_DAY_CNT=28'
p1086
I1263
sS'NBR_INSPECTORS=13'
p1087
I166
sS'VIOLATOR_INSPECTION_DAY_CNT=25'
p1088
I1258
sS'VIOLATOR_INSPECTION_DAY_CNT=24'
p1089
I1256
sS'VIOLATOR_INSPECTION_DAY_CNT=27'
p1090
I1262
sS'VIOLATOR_INSPECTION_DAY_CNT=26'
p1091
I1260
sS'VIOLATOR_INSPECTION_DAY_CNT=21'
p1092
I1248
sS'VIOLATOR_INSPECTION_DAY_CNT=20'
p1093
I1246
sS'VIOLATOR_INSPECTION_DAY_CNT=23'
p1094
I1254
sS'VIOLATOR_INSPECTION_DAY_CNT=22'
p1095
I1251
sS'ACTIVITY=RESPIRABLE DUST SPOT INSPECTION'
p1096
I46
sS'TOTAL_ON_SITE_HOURS=321'
p1097
I1059
sS'NBR_INSPECTORS=16'
p1098
I168
sS'VIOLATOR_INSPECTION_DAY_CNT=339'
p1099
I1278
sS'VIOLATOR_INSPECTION_DAY_CNT=242'
p1100
I1257
sS'PORTABLE_FIPS_ST_CD=26'
p1101
I267
sS'SURF_FACILITY_MINE=Y'
p1102
I745
sS'TOTAL_ON_SITE_HOURS=430'
p1103
I1083
sS'TOTAL_ON_SITE_HOURS=434'
p1104
I1084
sS'PRIMARY_SIC=Dimension Stone NEC'
p1105
I323
sS'PRIMARY_SIC=Crushed, Broken Granite'
p1106
I310
sS'TOTAL_ON_SITE_HOURS=58'
p1107
I1109
sS'TOTAL_ON_SITE_HOURS=59'
p1108
I1110
sS'NO_AFFECTED=30'
p1109
I196
sS'TOTAL_INSP_HOURS=197'
p1110
I798
sS'TOTAL_ON_SITE_HOURS=50'
p1111
I1097
sS'TOTAL_ON_SITE_HOURS=51'
p1112
I1098
sS'TOTAL_ON_SITE_HOURS=52'
p1113
I1099
sS'TOTAL_ON_SITE_HOURS=53'
p1114
I1101
sS'SAMPLE_CNT_DUSTSURVEY=84'
p1115
I561
sS'TOTAL_ON_SITE_HOURS=55'
p1116
I1104
sS'TOTAL_ON_SITE_HOURS=56'
p1117
I1105
sS'TOTAL_ON_SITE_HOURS=57'
p1118
I1108
sS'TOTAL_INSP_HOURS=16'
p1119
I788
sS'TOTAL_INSP_HOURS=17'
p1120
I791
sS'TOTAL_INSP_HOURS=14'
p1121
I776
sS'TOTAL_INSP_HOURS=15'
p1122
I785
sS'TOTAL_INSP_HOURS=12'
p1123
I766
sS'TOTAL_INSP_HOURS=13'
p1124
I773
sS'TOTAL_INSP_HOURS=10'
p1125
I750
sS'TOTAL_INSP_HOURS=11'
p1126
I759
sS'ACTIVITY=103(I) SPOT (10-DAY) INSPECTION'
p1127
I9
sS'TOTAL_INSP_HOURS=18'
p1128
I793
sS'TOTAL_INSP_HOURS=19'
p1129
I796
sS'TOTAL_INSP_HOURS=378'
p1130
I838
sS'MINE_TYPE=Facility'
p1131
I154
sS'EXPLOSIVE_STORAGE=N'
p1132
I113
sS'SAMPLE_CNT_RESPDUST=1239'
p1133
I635
sS'EXPLOSIVE_STORAGE=Y'
p1134
I114
sS'PORTABLE_FIPS_ST_CD=32'
p1135
I272
sS'PORTABLE_FIPS_ST_CD=33'
p1136
I273
sS'PORTABLE_FIPS_ST_CD=30'
p1137
I270
sS'PORTABLE_FIPS_ST_CD=31'
p1138
I271
sS'PORTABLE_FIPS_ST_CD=36'
p1139
I276
sS'PORTABLE_FIPS_ST_CD=34'
p1140
I274
sS'PORTABLE_FIPS_ST_CD=35'
p1141
I275
sS'MAJOR_CONSTR=N'
p1142
I152
sS'PORTABLE_FIPS_ST_CD=38'
p1143
I277
sS'CO_RECORDS=Y'
p1144
I102
sS'PROGRAM_AREA=Coal--WATER/SLURRY TECHNICAL INSPECTION'
p1145
I398
sS'CO_RECORDS=N'
p1146
I101
sS'MAJOR_CONSTR=Y'
p1147
I153
sS'PROGRAM_AREA=M/NM--PART 50 AUDIT'
p1148
I411
sS'IMPOUND_CONSTR=0'
p1149
I136
sS'SAMPLE_CNT_AIR=1200'
p1150
I429
sS'PROGRAM_AREA=Coal--103 (g) Written Notification Hazard Complaint Inspecti'
p1151
I354
sS'SAMPLE_CNT_AIR=63'
p1152
I475
sS'SAMPLE_CNT_AIR=60'
p1153
I474
sS'SAMPLE_CNT_AIR=65'
p1154
I476
sS'TOTAL_ON_SITE_HRS_SPVR_TRAINEE=12'
p1155
I1167
sS'TOTAL_ON_SITE_HRS_SPVR_TRAINEE=13'
p1156
I1168
sS'TOTAL_ON_SITE_HRS_SPVR_TRAINEE=10'
p1157
I1165
sS'TOTAL_ON_SITE_HRS_SPVR_TRAINEE=11'
p1158
I1166
sS'TOTAL_ON_SITE_HRS_SPVR_TRAINEE=16'
p1159
I1171
sS'TOTAL_ON_SITE_HRS_SPVR_TRAINEE=17'
p1160
I1172
sS'TOTAL_ON_SITE_HRS_SPVR_TRAINEE=14'
p1161
I1169
sS'TOTAL_ON_SITE_HRS_SPVR_TRAINEE=15'
p1162
I1170
sS'TOTAL_ON_SITE_HRS_SPVR_TRAINEE=18'
p1163
I1173
sS'TOTAL_ON_SITE_HRS_SPVR_TRAINEE=19'
p1164
I1174
sS'VIOLATOR_INSPECTION_DAY_CNT=464'
p1165
I1339
sS'VIOLATOR_VIOLATION_CNT=64'
p1166
I1560
sS'VIOLATOR_VIOLATION_CNT=66'
p1167
I1561
sS'VIOLATOR_VIOLATION_CNT=60'
p1168
I1557
sS'TOTAL_INSP_HOURS=28'
p1169
I818
sS'PROGRAM_AREA=Coal--ROOF CONTROL SPOT INSPECTION'
p1170
I383
sS'VIOLATOR_VIOLATION_CNT=63'
p1171
I1559
sS'SAMPLE_CNT_AIR=88'
p1172
I491
sS'VIOLATOR_VIOLATION_CNT=68'
p1173
I1562
sS'VIOLATOR_VIOLATION_CNT=69'
p1174
I1563
sS'PROGRAM_AREA=M/NM--ATTEMPTED INSPECTION'
p1175
I401
sS'VIOLATOR_VIOLATION_CNT=302'
p1176
I1474
sS'VIOLATOR_VIOLATION_CNT=303'
p1177
I1475
sS'VIOLATOR_VIOLATION_CNT=304'
p1178
I1476
sS'VIOLATOR_VIOLATION_CNT=305'
p1179
I1477
sS'VIOLATOR_VIOLATION_CNT=308'
p1180
I1478
sS'VIOLATOR_VIOLATION_CNT=309'
p1181
I1479
sS'SAMPLE_CNT_RESPDUST=663'
p1182
I715
sS'SAMPLE_CNT_NOISE=10'
p1183
I568
sS'TOTAL_INSP_HOURS=642'
p1184
I879
sS'PROGRAM_AREA=Coal--Impoundment Spot Inspection'
p1185
I370
sS'PROGRAM_AREA=Coal--ELECTRICAL SPOT INSPECTION'
p1186
I364
sS'TOTAL_INSP_HOURS=4'
p1187
I843
sS'TOTAL_INSP_HOURS=5'
p1188
I860
sS'TOTAL_INSP_HOURS=6'
p1189
I873
sS'TOTAL_INSP_HOURS=7'
p1190
I885
sS'TOTAL_INSP_HOURS=0'
p1191
I748
sS'TOTAL_INSP_HOURS=1'
p1192
I749
sS'TOTAL_INSP_HOURS=2'
p1193
I799
sS'TOTAL_INSP_HOURS=3'
p1194
I822
sS'SAMPLE_CNT_RESPDUST=234'
p1195
I675
sS'TOTAL_INSP_HOURS=8'
p1196
I896
sS'TOTAL_INSP_HOURS=9'
p1197
I906
sS'SAMPLE_CNT_RESPDUST=306'
p1198
I688
sS'VIOLATOR_VIOLATION_CNT=88'
p1199
I1578
sS'VIOLATOR_VIOLATION_CNT=82'
p1200
I1574
sS'VIOLATOR_VIOLATION_CNT=80'
p1201
I1572
sS'VIOLATOR_VIOLATION_CNT=81'
p1202
I1573
sS'VIOLATOR_VIOLATION_CNT=86'
p1203
I1576
sS'VIOLATOR_VIOLATION_CNT=275'
p1204
I1462
sS'VIOLATOR_VIOLATION_CNT=276'
p1205
I1463
sS'VIOLATOR_VIOLATION_CNT=277'
p1206
I1464
sS'SAMPLE_CNT_RESPDUST=128'
p1207
I639
sS'ACTIVITY=Part 50 Audit'
p1208
I41
sS'SAMPLE_CNT_RESPDUST=120'
p1209
I634
sS'SAMPLE_CNT_RESPDUST=126'
p1210
I637
sS'SAMPLE_CNT_RESPDUST=437'
p1211
I700
sS'SAMPLE_CNT_AIR=715'
p1212
I482
sS'SAMPLE_CNT_DUSTSURVEY=327'
p1213
I544
sS'PROGRAM_AREA=Coal--103(I) SPOT (15 DAY) INSPECTION'
p1214
I357
sS'AVG_MINE_HEIGHT=49'
p1215
I86
sS'PRIMARY_SIC=Pumice'
p1216
I340
sS'PRIMARY_SIC=Bentonite'
p1217
I301
sS'SAMPLE_CNT_DUSTSURVEY=71'
p1218
I558
sS'SAMPLE_CNT_DUSTSURVEY=4875'
p1219
I551
sS'SAMPLE_CNT_DUSTSURVEY=72'
p1220
I559
sS'TOTAL_ON_SITE_HOURS=217'
p1221
I1033
sS'SAMPLE_CNT_DUSTSURVEY=78'
p1222
I560
sS'ACTIVITY=Health Technical Investigation'
p1223
I28
sS'TOTAL_ON_SITE_HOURS=158'
p1224
I997
sS'TOTAL_ON_SITE_HOURS=153'
p1225
I994
sS'TOTAL_ON_SITE_HOURS=150'
p1226
I992
sS'TOTAL_ON_SITE_HOURS=151'
p1227
I993
sS'TOTAL_ON_SITE_HOURS=154'
p1228
I995
sS'TOTAL_ON_SITE_HOURS=155'
p1229
I996
sS'VIOLATOR_INSPECTION_DAY_CNT=439'
p1230
I1314
sS'VIOLATOR_INSPECTION_DAY_CNT=438'
p1231
I1313
sS'VIOLATOR_INSPECTION_DAY_CNT=435'
p1232
I1310
sS'VIOLATOR_INSPECTION_DAY_CNT=437'
p1233
I1312
sS'VIOLATOR_INSPECTION_DAY_CNT=436'
p1234
I1311
sS'VIOLATOR_INSPECTION_DAY_CNT=431'
p1235
I1307
sS'VIOLATOR_INSPECTION_DAY_CNT=433'
p1236
I1309
sS'VIOLATOR_INSPECTION_DAY_CNT=432'
p1237
I1308
sS'SAMPLE_CNT_AIR=312'
p1238
I455
sS'VIOLATOR_INSPECTION_DAY_CNT=19'
p1239
I1241
sS'VIOLATOR_INSPECTION_DAY_CNT=10'
p1240
I1203
sS'VIOLATOR_INSPECTION_DAY_CNT=11'
p1241
I1211
sS'VIOLATOR_INSPECTION_DAY_CNT=12'
p1242
I1219
sS'VIOLATOR_INSPECTION_DAY_CNT=13'
p1243
I1222
sS'VIOLATOR_INSPECTION_DAY_CNT=14'
p1244
I1228
sS'VIOLATOR_INSPECTION_DAY_CNT=15'
p1245
I1230
sS'VIOLATOR_INSPECTION_DAY_CNT=16'
p1246
I1233
sS'VIOLATOR_INSPECTION_DAY_CNT=17'
p1247
I1236
sS'TOTAL_INSP_HOURS=213'
p1248
I802
sS'TOTAL_INSP_HOURS=215'
p1249
I803
sS'TOTAL_INSP_HRS_SPVR_TRAINEE=48'
p1250
I936
sS'VIOLATOR_INSPECTION_DAY_CNT=509'
p1251
I1361
sS'ACTIVITY=REGULAR INSPECTION'
p1252
I42
sS'TOTAL_INSP_HOURS=182'
p1253
I794
sS'SAMPLE_CNT_DUSTSURVEY=99'
p1254
I566
sS'NO_AFFECTED=20'
p1255
I193
sS'NO_AFFECTED=22'
p1256
I194
sS'SAMPLE_CNT_DUSTSURVEY=92'
p1257
I564
sS'SAMPLE_CNT_DUSTSURVEY=96'
p1258
I565
sS'TOTAL_ON_SITE_HOURS=47'
p1259
I1091
sS'TOTAL_ON_SITE_HOURS=46'
p1260
I1090
sS'TOTAL_ON_SITE_HOURS=45'
p1261
I1088
sS'TOTAL_ON_SITE_HOURS=44'
p1262
I1085
sS'TOTAL_ON_SITE_HOURS=43'
p1263
I1082
sS'TOTAL_ON_SITE_HOURS=42'
p1264
I1081
sS'TOTAL_ON_SITE_HOURS=41'
p1265
I1078
sS'TOTAL_ON_SITE_HOURS=40'
p1266
I1075
sS'TOTAL_ON_SITE_HOURS=49'
p1267
I1095
sS'TOTAL_ON_SITE_HOURS=48'
p1268
I1092
sS'VIOLATOR_TYPE_CD=Contractor'
p1269
I1404
sS'ACTIVITY=VENTILATION TECHNICAL INVESTIGATION'
p1270
I59
sS'ACTIVITY=WATER/SLURRY TECHNICAL INSPECTION'
p1271
I64
sS'SAMPLE_CNT_RESPDUST=840'
p1272
I723
sS'NBR_INSPECTORS=12'
p1273
I165
sS'PORTABLE_FIPS_ST_CD=20'
p1274
I263
sS'PORTABLE_FIPS_ST_CD=23'
p1275
I265
sS'NBR_INSPECTORS=11'
p1276
I164
sS'PORTABLE_FIPS_ST_CD=25'
p1277
I266
sS'PORTABLE_FIPS_ST_CD=27'
p1278
I268
sS'NBR_INSPECTORS=15'
p1279
I167
sS'PORTABLE_FIPS_ST_CD=29'
p1280
I269
sS'MULTIPLE_PITS=N'
p1281
I159
sS'SURF_FACILITY_MINE=N'
p1282
I744
sS'SAMPLE_CNT_AIR=75'
p1283
I485
sS'SAMPLE_CNT_AIR=72'
p1284
I483
sS'TOTAL_ON_SITE_HRS_SPVR_TRAINEE=26'
p1285
I1181
sS'TOTAL_ON_SITE_HRS_SPVR_TRAINEE=25'
p1286
I1180
sS'TOTAL_ON_SITE_HRS_SPVR_TRAINEE=24'
p1287
I1179
sS'TOTAL_ON_SITE_HRS_SPVR_TRAINEE=23'
p1288
I1178
sS'TOTAL_ON_SITE_HRS_SPVR_TRAINEE=21'
p1289
I1177
sS'TOTAL_ON_SITE_HRS_SPVR_TRAINEE=20'
p1290
I1176
sS'ACTIVITY=Non-Fatal Accident Investigation'
p1291
I36
sS'SAMPLE_CNT_AIR=92'
p1292
I493
sS'SAMPLE_CNT_AIR=90'
p1293
I492
sS'PRIMARY_SIC=Crushed, Broken Slate'
p1294
I315
sS'SAMPLE_CNT_RESPDUST=1175'
p1295
I632
sS'VIOLATOR_VIOLATION_CNT=316'
p1296
I1482
sS'VIOLATOR_VIOLATION_CNT=311'
p1297
I1481
sS'PRIMARY_SIC=Salt, Brine Evaporated'
p1298
I342
sS'ACTIVITY=PART 50 AUDIT'
p1299
I39
sS'SAMPLE_CNT_RESPDUST=1776'
p1300
I662
sS'PRIMARY_SIC=Lime'
p1301
I335
sS'VIOLATOR_VIOLATION_CNT=45'
p1302
I1541
sS'NO_EMPLOYEES=95'
p1303
I245
sS'NO_EMPLOYEES=112'
p1304
I209
sS'SAMPLE_CNT_RESPDUST=208'
p1305
I670
sS'INJ_ILLNESS='
p1306
I137
sS'SAMPLE_CNT_RESPDUST=330'
p1307
I691
sS'INJ_ILLNESS=LostDays'
p1308
I139
sS'VIOLATOR_VIOLATION_CNT=263'
p1309
I1460
sS'SAMPLE_CNT_DUSTSURVEY=2420'
p1310
I534
sS'SAMPLE_CNT_AIR=276'
p1311
I452
sS'SAMPLE_CNT_RESPDUST=116'
p1312
I631
sS'SAMPLE_CNT_RESPDUST=110'
p1313
I630
sS'ACTIVITY=ELECTRICAL INSPECTION'
p1314
I20
sS'TOTAL_ON_SITE_HOURS=528'
p1315
I1100
sS'ACTIVITY=ATTEMPTED INSPECTION'
p1316
I15
sS'SAMPLE_CNT_NOISE=80'
p1317
I618
sS'VIOLATOR_INSPECTION_DAY_CNT=428'
p1318
I1305
sS'PROGRAM_AREA=Coal--PART 50 AUDITS'
p1319
I377
sS'VIOLATOR_INSPECTION_DAY_CNT=422'
p1320
I1300
sS'VIOLATOR_INSPECTION_DAY_CNT=423'
p1321
I1301
sS'VIOLATOR_INSPECTION_DAY_CNT=420'
p1322
I1298
sS'VIOLATOR_INSPECTION_DAY_CNT=421'
p1323
I1299
sS'VIOLATOR_INSPECTION_DAY_CNT=427'
p1324
I1304
sS'VIOLATOR_INSPECTION_DAY_CNT=424'
p1325
I1302
sS'VIOLATOR_INSPECTION_DAY_CNT=425'
p1326
I1303
sS'TOTAL_ON_SITE_HOURS=180'
p1327
I1016
sS'TOTAL_ON_SITE_HOURS=182'
p1328
I1017
sS'TOTAL_ON_SITE_HOURS=630'
p1329
I1117
sS'TOTAL_INSP_HOURS=229'
p1330
I806
sS'TOTAL_INSP_HRS_SPVR_TRAINEE=32'
p1331
I933
sS'TOTAL_INSP_HOURS=227'
p1332
I805
sS'TOTAL_INSP_HRS_SPVR_TRAINEE=37'
p1333
I934
sS'VIOLATOR_INSPECTION_DAY_CNT=514'
p1334
I1362
sS'ACTIVITY=SAFETY & HEALTH (SATURATION) INSP'
p1335
I53
sS'PROGRAM_AREA=Coal--VENTILATION TECHNICAL INSPECTION'
p1336
I393
sS'PROGRAM_AREA=M/NM--ACCIDENT INVESTIGATION'
p1337
I400
sS'TOTAL_ON_SITE_HOURS=116'
p1338
I962
sS'TOTAL_ON_SITE_HOURS=117'
p1339
I963
sS'TOTAL_ON_SITE_HOURS=456'
p1340
I1089
sS'SAMPLE_CNT_AIR=1100'
p1341
I426
sS'NO_AFFECTED=10'
p1342
I185
sS'NO_AFFECTED=11'
p1343
I186
sS'NO_AFFECTED=12'
p1344
I187
sS'NO_AFFECTED=13'
p1345
I188
sS'NO_AFFECTED=14'
p1346
I189
sS'NO_AFFECTED=15'
p1347
I190
sS'NO_AFFECTED=16'
p1348
I191
sS'TOTAL_ON_SITE_HOURS=32'
p1349
I1058
sS'TOTAL_ON_SITE_HOURS=33'
p1350
I1060
sS'TOTAL_ON_SITE_HOURS=30'
p1351
I1055
sS'PRIMARY_SIC=Crushed, Broken Limestone NEC'
p1352
I311
sS'TOTAL_ON_SITE_HOURS=36'
p1353
I1064
sS'TOTAL_ON_SITE_HOURS=37'
p1354
I1068
sS'TOTAL_ON_SITE_HOURS=34'
p1355
I1061
sS'TOTAL_ON_SITE_HOURS=35'
p1356
I1062
sS'TOTAL_ON_SITE_HOURS=38'
p1357
I1071
sS'TOTAL_ON_SITE_HOURS=39'
p1358
I1072
sS'PROGRAM_AREA=Coal--Non-Fatal Accident Investigation'
p1359
I374
sS'SAMPLE_CNT_OTHER=64'
p1360
I625
sS'TOTAL_INSP_HOURS=406'
p1361
I847
sS'TOTAL_INSP_HOURS=404'
p1362
I846
sS'TOTAL_INSP_HOURS=150'
p1363
I786
sS'TOTAL_INSP_HOURS=400'
p1364
I845
sS'TOTAL_INSP_HOURS=153'
p1365
I787
sS'ACTIVITY=WASTE PILE TECHNICAL INSPECTION'
p1366
I63
sS'TOTAL_ON_SITE_HOURS=118'
p1367
I964
sS'PROGRAM_AREA=Coal--103(I) SPOT (10-DAY) INSPECTION'
p1368
I356
sS'SAMPLE_CNT_NOISE=455'
p1369
I605
sS'PRIMARY_SIC=Cement'
p1370
I302
sS'PORTABLE_FIPS_ST_CD=18'
p1371
I261
sS'PORTABLE_FIPS_ST_CD=19'
p1372
I262
sS'PORTABLE_FIPS_ST_CD=15'
p1373
I258
sS'PORTABLE_FIPS_ST_CD=16'
p1374
I259
sS'PORTABLE_FIPS_ST_CD=17'
p1375
I260
sS'PORTABLE_FIPS_ST_CD=12'
p1376
I257
sS'ACTIVITY=Mine Idle Activity'
p1377
I31
sS'NEGLIGENCE=HighNegligence'
p1378
I178
sS'SURF_UG_MINE=Y'
p1379
I747
sS'SURF_UG_MINE=N'
p1380
I746
sS'TOTAL_ON_SITE_HRS_SPVR_TRAINEE=38'
p1381
I1185
sS'TOTAL_ON_SITE_HRS_SPVR_TRAINEE=30'
p1382
I1183
sS'TOTAL_ON_SITE_HRS_SPVR_TRAINEE=32'
p1383
I1184
sS'TOTAL_INSP_HOURS=392'
p1384
I842
sS'PROGRAM_AREA=M/NM--Spot Inspection'
p1385
I415
sS'SAMPLE_CNT_RESPDUST=48'
p1386
I703
sS'SAMPLE_CNT_RESPDUST=45'
p1387
I701
sS'SAMPLE_CNT_RESPDUST=40'
p1388
I698
sS'TOTAL_ON_SITE_HOURS=375'
p1389
I1069
sS'PROGRAM_AREA=Coal--RESP DUST TECHNICAL INVESTIGATION'
p1390
I381
sS'HIGHWALL_MINER_USED=Y'
p1391
I116
sS'HIGHWALL_MINER_USED=N'
p1392
I115
sS'IMPOUNDMENTS=N'
p1393
I134
sS'TOTAL_ON_SITE_HOURS=74'
p1394
I1132
sS'NBR_INSPECTORS=10'
p1395
I163
sS'NO_EMPLOYEES=103'
p1396
I208
sS'IMPOUNDMENTS=Y'
p1397
I135
sS'SAMPLE_CNT_RESPDUST=529'
p1398
I708
sS'VIOLATOR_VIOLATION_CNT=102'
p1399
I1410
sS'ACTIVITY=Verbal Hazard Complaint Inspections'
p1400
I62
sS'SAMPLE_CNT_DUSTSPOT=18'
p1401
I496
sS'NO_EMPLOYEES=214'
p1402
I221
sS'VIOLATOR_VIOLATION_CNT=105'
p1403
I1411
sS'ACTIVITY=NOISE TECHNICAL INVESTIGATION'
p1404
I32
sS'VIOLATOR_VIOLATION_CNT=293'
p1405
I1470
sS'VIOLATOR_VIOLATION_CNT=290'
p1406
I1468
sS'VIOLATOR_VIOLATION_CNT=291'
p1407
I1469
sS'VIOLATOR_VIOLATION_CNT=296'
p1408
I1471
sS'SAMPLE_CNT_RESPDUST=520'
p1409
I707
sS'SAMPLE_CNT_AIR=240'
p1410
I447
sS'SAMPLE_CNT_RESPDUST=450'
p1411
I702
sS'SAMPLE_CNT_RESPDUST=100'
p1412
I628
sS'SAMPLE_CNT_RESPDUST=108'
p1413
I629
sS'SAMPLE_CNT_RESPDUST=210'
p1414
I671
sS'ACTIVITY=ATTEMPTED INSPECTION (DENIAL OF ENTRY)'
p1415
I16
sS'ACTIVITY=SPECIAL ENFORCEMENT 3'
p1416
I54
sS'TOTAL_ON_SITE_HOURS=533'
p1417
I1102
sS'SAMPLE_CNT_NOISE=1239'
p1418
I575
sS'VIOLATOR_INSPECTION_DAY_CNT=185'
p1419
I1240
sS'SAMPLE_CNT_NOISE=95'
p1420
I621
sS'SAMPLE_CNT_NOISE=90'
p1421
I620
sS'VIOLATOR_INSPECTION_DAY_CNT=72'
p1422
I1381
sS'VIOLATOR_INSPECTION_DAY_CNT=73'
p1423
I1382
sS'SAMPLE_CNT_AIR=336'
p1424
I457
sS'VIOLATOR_INSPECTION_DAY_CNT=71'
p1425
I1380
sS'VIOLATOR_INSPECTION_DAY_CNT=77'
p1426
I1385
sS'VIOLATOR_INSPECTION_DAY_CNT=74'
p1427
I1383
sS'TOTAL_ON_SITE_HOURS=199'
p1428
I1022
sS'VIOLATOR_INSPECTION_DAY_CNT=78'
p1429
I1386
sS'TOTAL_ON_SITE_HOURS=195'
p1430
I1021
sS'TOTAL_ON_SITE_HOURS=193'
p1431
I1020
sS'TOTAL_ON_SITE_HOURS=191'
p1432
I1019
sS'TOTAL_INSP_HOURS=239'
p1433
I808
sS'TOTAL_INSP_HRS_SPVR_TRAINEE=28'
p1434
I930
sS'VIOLATOR_VIOLATION_CNT=219'
p1435
I1453
sS'LIKELIHOOD=NoLikelihood'
p1436
I144
sS'VIOLATOR_INSPECTION_DAY_CNT=166'
p1437
I1235
sS'VIOLATOR_INSPECTION_DAY_CNT=165'
p1438
I1234
sS'TOTAL_INSP_HRS_SPVR_TRAINEE=22'
p1439
I927
sS'TOTAL_INSP_HRS_SPVR_TRAINEE=25'
p1440
I929
sS'TOTAL_INSP_HRS_SPVR_TRAINEE=24'
p1441
I928
sS'VIOLATOR_INSPECTION_DAY_CNT=291'
p1442
I1265
sS'VIOLATOR_INSPECTION_DAY_CNT=295'
p1443
I1266
sS'ACTIVITY=SPOT INSPECTION'
p1444
I55
sS'OUTBY_AREAS=Y'
p1445
I247
sS'ACTIVITY=Regular Safety and Health Inspection'
p1446
I51
sS'TOTAL_ON_SITE_HOURS=440'
p1447
I1086
sS'PORTABLE_OPERATION=Y'
p1448
I291
sS'TOTAL_ON_SITE_HOURS=443'
p1449
I1087
sS'VIOLATOR_INSPECTION_DAY_CNT=440'
p1450
I1316
sS'TOTAL_ON_SITE_HOURS=991'
p1451
I1162
sS'PORTABLE_OPERATION=N'
p1452
I290
sS'TOTAL_ON_SITE_HOURS=21'
p1453
I1029
sS'TOTAL_ON_SITE_HOURS=20'
p1454
I1024
sS'TOTAL_ON_SITE_HOURS=23'
p1455
I1037
sS'TOTAL_ON_SITE_HOURS=22'
p1456
I1034
sS'TOTAL_ON_SITE_HOURS=25'
p1457
I1041
sS'TOTAL_ON_SITE_HOURS=24'
p1458
I1038
sS'TOTAL_ON_SITE_HOURS=27'
p1459
I1045
sS'TOTAL_ON_SITE_HOURS=26'
p1460
I1044
sS'TOTAL_ON_SITE_HOURS=29'
p1461
I1052
sS'TOTAL_ON_SITE_HOURS=28'
p1462
I1049
sS'PROGRAM_AREA=Coal--Regular Safety and Health Inspection'
p1463
I387
sS'TOTAL_INSP_HOURS=146'
p1464
I783
sS'TOTAL_INSP_HOURS=145'
p1465
I782
sS'TOTAL_INSP_HOURS=144'
p1466
I781
sS'TOTAL_INSP_HOURS=143'
p1467
I780
sS'TOTAL_INSP_HOURS=142'
p1468
I779
sS'TOTAL_INSP_HOURS=141'
p1469
I778
sS'TOTAL_INSP_HOURS=140'
p1470
I777
sS'TOTAL_INSP_HOURS=149'
p1471
I784
sS'PROGRAM_AREA=Coal--NOISE TECHNICAL INVESTIGATION'
p1472
I371
sS'PORTABLE_FIPS_ST_CD=09'
p1473
I256
sS'PORTABLE_FIPS_ST_CD=08'
p1474
I255
sS'PORTABLE_FIPS_ST_CD=02'
p1475
I252
sS'PORTABLE_FIPS_ST_CD=06'
p1476
I254
sS'PORTABLE_FIPS_ST_CD=04'
p1477
I253
sS'PRIMARY_SIC=Mica'
p1478
I336
sS'ACTIVITY=ROOF CONTROL TECHNICAL INSPECTION'
p1479
I48
sS'TOTAL_ON_SITE_HRS_SPVR_TRAINEE=45'
p1480
I1187
sS'TOTAL_ON_SITE_HRS_SPVR_TRAINEE=46'
p1481
I1188
sS'TOTAL_INSP_HOURS=29'
p1482
I820
sS'PROGRAM_AREA=Coal--WASTE PILE TECHNICAL INSPECTION'
p1483
I397
sS'SAMPLE_CNT_RESPDUST=55'
p1484
I709
sS'SAMPLE_CNT_RESPDUST=56'
p1485
I710
sS'SAMPLE_CNT_RESPDUST=51'
p1486
I706
sS'SAMPLE_CNT_RESPDUST=50'
p1487
I705
sS'TOTAL_ON_SITE_HOURS=138'
p1488
I981
sS'TOTAL_INSP_HOURS=25'
p1489
I810
sS'PRIMARY_SIC=Shell'
p1490
I345
sS'TOTAL_INSP_HOURS=24'
p1491
I809
sS'VIOLATOR_INSPECTION_DAY_CNT=98'
p1492
I1403
sS'NBR_INSPECTORS=2'
p1493
I169
sS'ACTIVITY=ACCIDENT PREVENTION SPOT INSPECTION'
p1494
I14
sS'ACTIVITY=103(G)(1) SPOT INSPECTION'
p1495
I8
sS'PROGRAM_AREA=Coal--RESP DUST TECH INSP - U. G. MINES'
p1496
I380
sS'SAMPLE_CNT_DUSTSURVEY=110'
p1497
I511
sS'VIOLATOR_VIOLATION_CNT=111'
p1498
I1416
sS'VIOLATOR_VIOLATION_CNT=110'
p1499
I1415
sS'VIOLATOR_VIOLATION_CNT=113'
p1500
I1417
sS'VIOLATOR_VIOLATION_CNT=117'
p1501
I1418
sS'VIOLATOR_VIOLATION_CNT=119'
p1502
I1420
sS'VIOLATOR_VIOLATION_CNT=118'
p1503
I1419
sS'VIOLATOR_VIOLATION_CNT=282'
p1504
I1466
sS'ACTIVITY=Non-Chargeable Accident Investigation'
p1505
I35
sS'TOTAL_ON_SITE_HOURS=8'
p1506
I1139
sS'TOTAL_ON_SITE_HOURS=9'
p1507
I1151
sS'TOTAL_ON_SITE_HOURS=2'
p1508
I1023
sS'TOTAL_ON_SITE_HOURS=3'
p1509
I1054
sS'TOTAL_ON_SITE_HOURS=0'
p1510
I942
sS'TOTAL_ON_SITE_HOURS=1'
p1511
I943
sS'TOTAL_ON_SITE_HOURS=6'
p1512
I1111
sS'TOTAL_ON_SITE_HOURS=7'
p1513
I1126
sS'TOTAL_ON_SITE_HOURS=4'
p1514
I1074
sS'TOTAL_ON_SITE_HOURS=5'
p1515
I1096
sS'SAMPLE_CNT_AIR=253'
p1516
I449
sS'AVG_MINE_HEIGHT=38'
p1517
I78
sS'SAMPLE_CNT_AIR=250'
p1518
I448
sS'SAMPLE_CNT_AIR=255'
p1519
I450
sS'AVG_MINE_HEIGHT=32'
p1520
I73
sS'AVG_MINE_HEIGHT=33'
p1521
I74
sS'AVG_MINE_HEIGHT=36'
p1522
I76
sS'AVG_MINE_HEIGHT=37'
p1523
I77
sS'AVG_MINE_HEIGHT=35'
p1524
I75
sS'SAMPLE_CNT_RESPDUST=2176'
p1525
I672
sS'PRIMARY_SIC=Common Clays NEC'
p1526
I306
sS'SAMPLE_CNT_NOISE=88'
p1527
I619
sS'ACTIVITY=ACCIDENT INVESTIGATION'
p1528
I13
sS'VIOLATOR_INSPECTION_DAY_CNT=193'
p1529
I1243
sS'VIOLATOR_INSPECTION_DAY_CNT=190'
p1530
I1242
sS'VIOLATOR_INSPECTION_DAY_CNT=197'
p1531
I1244
sS'SAMPLE_CNT_NOISE=60'
p1532
I613
sS'SAMPLE_CNT_NOISE=66'
p1533
I616
sS'SAMPLE_CNT_NOISE=65'
p1534
I615
sS'SAMPLE_CNT_NOISE=64'
p1535
I614
sS'VIOLATOR_INSPECTION_DAY_CNT=61'
p1536
I1370
sS'VIOLATOR_INSPECTION_DAY_CNT=60'
p1537
I1369
sS'VIOLATOR_INSPECTION_DAY_CNT=62'
p1538
I1371
sS'VIOLATOR_INSPECTION_DAY_CNT=65'
p1539
I1373
sS'VIOLATOR_INSPECTION_DAY_CNT=64'
p1540
I1372
sS'VIOLATOR_INSPECTION_DAY_CNT=67'
p1541
I1375
sS'VIOLATOR_INSPECTION_DAY_CNT=66'
p1542
I1374
sS'VIOLATOR_INSPECTION_DAY_CNT=69'
p1543
I1377
sS'VIOLATOR_INSPECTION_DAY_CNT=68'
p1544
I1376
sS'TOTAL_INSP_HRS_SPVR_TRAINEE=14'
p1545
I920
sS'TOTAL_INSP_HRS_SPVR_TRAINEE=15'
p1546
I921
sS'TOTAL_INSP_HRS_SPVR_TRAINEE=16'
p1547
I922
sS'TOTAL_INSP_HRS_SPVR_TRAINEE=17'
p1548
I923
sS'TOTAL_INSP_HRS_SPVR_TRAINEE=10'
p1549
I916
sS'TOTAL_INSP_HRS_SPVR_TRAINEE=11'
p1550
I917
sS'TOTAL_INSP_HRS_SPVR_TRAINEE=12'
p1551
I918
sS'TOTAL_INSP_HRS_SPVR_TRAINEE=13'
p1552
I919
sS'VIOLATOR_INSPECTION_DAY_CNT=177'
p1553
I1237
sS'TOTAL_INSP_HRS_SPVR_TRAINEE=18'
p1554
I924
sS'TOTAL_INSP_HRS_SPVR_TRAINEE=19'
p1555
I925
sS'PROGRAM_AREA=Coal--Ventilation Technical Investigation'
p1556
I395
sS'SHAFTS_SLOPES=N'
p1557
I734
sS'TOTAL_ON_SITE_HOURS=294'
p1558
I1053
sS'PROGRAM_AREA=Coal--Fatal Accident Investigation'
p1559
I367
sS'SHAFTS_SLOPES=Y'
p1560
I735
sS'TOTAL_ON_SITE_HOURS=277'
p1561
I1048
sS'TOTAL_ON_SITE_HOURS=275'
p1562
I1047
sS'TOTAL_ON_SITE_HOURS=273'
p1563
I1046
sS'TOTAL_INSP_HOURS=390'
p1564
I841
sS'SAMPLE_CNT_RESPDUST=2301'
p1565
I674
sS'SAMPLE_CNT_RESPDUST=903'
p1566
I727
sS'NO_AFFECTED=79'
p1567
I202
sS'VIOLATOR_INSPECTION_DAY_CNT=379'
p1568
I1281
sS'OUTBY_AREAS=N'
p1569
I246
sS'TOTAL_ON_SITE_HOURS=18'
p1570
I1015
sS'TOTAL_ON_SITE_HOURS=19'
p1571
I1018
sS'TOTAL_ON_SITE_HOURS=14'
p1572
I982
sS'TOTAL_ON_SITE_HOURS=15'
p1573
I991
sS'TOTAL_ON_SITE_HOURS=16'
p1574
I998
sS'TOTAL_ON_SITE_HOURS=17'
p1575
I1007
sS'TOTAL_ON_SITE_HOURS=10'
p1576
I944
sS'TOTAL_ON_SITE_HOURS=11'
p1577
I955
sS'TOTAL_ON_SITE_HOURS=12'
p1578
I965
sS'TOTAL_ON_SITE_HOURS=13'
p1579
I974
sS'TOTAL_INSP_HOURS=176'
p1580
I792
sS'ACTIVITY=PART 50 AUDITS'
p1581
I40
sS'PRIMARY_SIC=Iron Ore'
p1582
I331
sS'PROGRAM_AREA=Coal--RESPIRABLE DUST SPOT INSPECTION'
p1583
I382
sS'MISC_AREA=N'
p1584
I157
sS'PRIMARY_SIC=Crushed, Broken Quartzite'
p1585
I313
sS'MISC_AREA=Y'
p1586
I158
sS'ACTIVITY=Impoundment Spot Inspection'
p1587
I29
sS'VIOLATOR_TYPE_CD=Operator'
p1588
I1405
sS'VIOLATOR_INSPECTION_DAY_CNT=457'
p1589
I1332
sS'SAMPLE_CNT_AIR=1248'
p1590
I431
sS'VIOLATOR_INSPECTION_DAY_CNT=456'
p1591
I1331
sS'VIOLATOR_INSPECTION_DAY_CNT=455'
p1592
I1330
ssS'dtype'
p1593
cnumpy
float64
p1594
sS'feature_names_'
p1595
(lp1596
g78
ag77
ag76
ag75
ag187
ag80
ag79
ag442
ag1495
ag1127
ag88
ag1066
ag508
ag1528
ag1494
ag1316
ag1415
ag478
ag945
ag751
ag1314
ag785
ag98
ag633
ag639
ag1040
ag643
ag31
ag1223
ag1587
ag289
ag1377
ag1404
ag687
ag563
ag1505
ag1291
ag747
ag268
ag1299
ag1581
ag1208
ag1252
ag269
ag274
ag890
ag1096
ag74
ag1479
ag791
ag323
ag1446
ag345
ag1335
ag1416
ag1444
ag286
ag1075
ag100
ag1270
ag62
ag537
ag1400
ag1366
ag1271
ag393
ag265
ag266
ag364
ag30
ag480
ag32
ag29
ag1520
ag1521
ag1524
ag1522
ag1523
ag1517
ag701
ag699
ag698
ag697
ag696
ag695
ag694
ag1215
ag555
ag424
ag421
ag422
ag319
ag318
ag955
ag970
ag971
ag973
ag180
ag177
ag952
ag948
ag1146
ag1144
ag53
ag54
ag55
ag56
ag57
ag58
ag59
ag60
ag150
ag149
ag1132
ag1134
ag1392
ag1391
ag152
ag153
ag255
ag256
ag257
ag253
ag254
ag151
ag156
ag157
ag154
ag155
ag158
ag159
ag271
ag270
ag272
ag1393
ag1397
ag1149
ag1306
ag408
ag1308
ag174
ag19
ag99
ag832
ag1436
ag186
ag233
ag788
ag1008
ag1007
ag1009
ag1010
ag1142
ag1147
ag1131
ag372
ag950
ag1584
ag1586
ag1281
ag1002
ag773
ag774
ag1395
ag1276
ag1273
ag1087
ag1279
ag1098
ag1493
ag776
ag777
ag778
ag779
ag780
ag781
ag782
ag1004
ag1378
ag411
ag521
ag817
ag373
ag249
ag250
ag1342
ag1343
ag1344
ag1345
ag1346
ag1347
ag1348
ag247
ag1255
ag1256
ag248
ag1109
ag222
ag245
ag246
ag243
ag244
ag1567
ag251
ag252
ag336
ag1051
ag543
ag1396
ag1304
ag544
ag545
ag546
ag547
ag683
ag548
ag551
ag542
ag107
ag676
ag675
ag1402
ag677
ag672
ag671
ag674
ag673
ag24
ag679
ag678
ag108
ag820
ag821
ag822
ag825
ag113
ag39
ag38
ag37
ag114
ag951
ag111
ag112
ag1064
ag118
ag1303
ag1569
ag1445
ag744
ag750
ag70
ag651
ag1475
ag1477
ag1476
ag1474
ag1473
ag1376
ag1373
ag1374
ag1375
ag1371
ag1372
ag1274
ag1084
ag1275
ag1277
ag1101
ag1278
ag1280
ag1137
ag1138
ag1135
ag1136
ag1140
ag1141
ag1139
ag1143
ag1016
ag1015
ag1014
ag1013
ag1018
ag1017
ag909
ag910
ag911
ag912
ag913
ag914
ag1452
ag1448
ag423
ag363
ag1034
ag949
ag804
ag927
ag420
ag893
ag652
ag1217
ag1370
ag210
ag818
ag559
ag1526
ag147
ag273
ag219
ag1106
ag1352
ag87
ag1585
ag429
ag1294
ag799
ag932
ag220
ag241
ag1070
ag395
ag611
ag1105
ag361
ag123
ag1003
ag394
ag275
ag132
ag374
ag1582
ag335
ag984
ag229
ag1301
ag1478
ag789
ag126
ag529
ag1216
ag403
ag1298
ag33
ag61
ag1490
ag1063
ag823
ag824
ag134
ag826
ag827
ag828
ag819
ag1151
ag959
ag1368
ag1214
ag915
ag1041
ag203
ag856
ag716
ag1035
ag1186
ag837
ag1067
ag1559
ag944
ag160
ag1185
ag1472
ag425
ag300
ag1359
ag894
ag943
ag1319
ag840
ag612
ag1496
ag1390
ag1583
ag1170
ag305
ag146
ag267
ag1463
ag73
ag640
ag1042
ag224
ag693
ag1336
ag1046
ag1556
ag230
ag1483
ag1145
ag89
ag1337
ag1175
ag775
ag653
ag20
ag367
ag835
ag834
ag477
ag484
ag360
ag1148
ag829
ag719
ag1044
ag1385
ag808
ag362
ag610
ag615
ag839
ag514
ag315
ag668
ag317
ag316
ag1341
ag784
ag513
ag1150
ag101
ag1590
ag830
ag1011
ag496
ag516
ag689
ag690
ag515
ag512
ag1083
ag972
ag650
ag176
ag175
ag649
ag648
ag1410
ag1518
ag1516
ag1519
ag647
ag1311
ag1058
ag841
ag1238
ag790
ag1424
ag412
ag42
ag792
ag793
ag842
ag907
ag854
ag1072
ag718
ag1027
ag956
ag1026
ag1025
ag1024
ag321
ag320
ag1153
ag1152
ag1154
ag40
ag401
ag843
ag833
ag692
ag1212
ag1284
ag302
ag1283
ag397
ag535
ag443
ag809
ag1036
ag1172
ag1293
ag1292
ag162
ag502
ag1401
ag1048
ag1047
ag188
ag946
ag540
ag539
ag670
ag669
ag301
ag584
ag464
ag35
ag36
ag686
ag1497
ag189
ag463
ag462
ag468
ag409
ag410
ag467
ag303
ag304
ag466
ag22
ag178
ag465
ag96
ag469
ag552
ag550
ag603
ag25
ag601
ag602
ag599
ag1310
ag600
ag598
ag933
ag604
ag583
ag721
ag720
ag722
ag786
ag1213
ag723
ag860
ag861
ag858
ag859
ag855
ag1219
ag717
ag961
ag960
ag958
ag1069
ag1068
ag1218
ag1220
ag1222
ag1115
ag212
ag607
ag1257
ag1258
ag1254
ag1005
ag1183
ag614
ag613
ag144
ag742
ag479
ag882
ag1418
ag883
ag753
ag752
ag685
ag141
ag71
ag684
ag371
ag370
ag682
ag1006
ag688
ag308
ag642
ag307
ag242
ag386
ag415
ag416
ag417
ag418
ag481
ag413
ag226
ag228
ag414
ag419
ag106
ag105
ag1369
ag991
ag754
ag889
ag182
ag183
ag181
ag184
ag1532
ag1535
ag1534
ag1533
ag41
ag1317
ag1527
ag1421
ag1420
ag148
ag348
ag193
ag1360
ag887
ag258
ag1412
ag1413
ag1313
ag1312
ag1295
ag259
ag1209
ag1133
ag904
ag1210
ag644
ag1207
ag1061
ag1060
ag1062
ag1059
ag406
ag954
ag953
ag391
ag787
ag646
ag405
ag836
ag838
ag263
ag713
ag714
ag712
ag509
ag715
ag562
ag561
ag560
ag1300
ag264
ag700
ag103
ag691
ag554
ag392
ag881
ag1305
ag1414
ag1525
ag1045
ag1565
ag1195
ag388
ag97
ag389
ag179
ag21
ag390
ag173
ag104
ag34
ag309
ag888
ag161
ag1198
ag501
ag500
ag1307
ag504
ag541
ag503
ag947
ag498
ag95
ag1388
ag221
ag1211
ag1387
ag1411
ag1386
ag1043
ag1487
ag1486
ag1409
ag1398
ag1484
ag1485
ag14
ag15
ag16
ag17
ag1182
ag83
ag82
ag81
ag85
ag957
ag365
ag906
ag1272
ag905
ag884
ag1021
ag1566
ag1020
ag1022
ag1023
ag1019
ag635
ag492
ag1557
ag1560
ag921
ag920
ag919
ag133
ag433
ag430
ag557
ag558
ag1282
ag1102
ag1380
ag1379
ag1191
ag1192
ag1125
ag215
ag214
ag213
ag218
ag217
ag216
ag211
ag185
ag1126
ag136
ag137
ag138
ag139
ag140
ag135
ag1123
ag471
ag473
ag472
ag475
ag474
ag476
ag1124
ag369
ag368
ag1121
ag1470
ag1469
ag1468
ag1467
ag1466
ag1465
ag1464
ag1471
ag1122
ag1363
ag1365
ag1119
ag69
ag68
ag1120
ag1580
ag1128
ag1253
ag987
ag1129
ag209
ag1110
ag1193
ag772
ag771
ag1248
ag1249
ag770
ag1332
ag1330
ag769
ag1433
ag1491
ag1489
ag748
ag746
ag745
ag766
ag877
ag878
ag765
ag1169
ag143
ag1482
ag223
ag1194
ag900
ag507
ag902
ag726
ag903
ag577
ag579
ag581
ag582
ag896
ag448
ag447
ag897
ag898
ag899
ag1130
ag892
ag494
ag1564
ag1384
ag1187
ag487
ag1364
ag1362
ag1361
ag486
ag489
ag488
ag483
ag482
ag1012
ag485
ag645
ag90
ag783
ag491
ag490
ag1188
ag626
ag627
ag624
ag625
ag630
ag63
ag64
ag631
ag815
ag816
ag618
ag796
ag1189
ag234
ag18
ag232
ag231
ag238
ag1184
ag237
ag236
ag235
ag240
ag239
ag1190
ag376
ag377
ag378
ag379
ag380
ag381
ag382
ag383
ag384
ag385
ag1196
ag196
ag195
ag198
ag145
ag200
ag199
ag202
ag201
ag192
ag1197
ag343
ag344
ag341
ag342
ag340
ag339
ag338
ag846
ag847
ag1549
ag1550
ag1551
ag1552
ag1545
ag1546
ag1547
ag1548
ag1554
ag1555
ag844
ag1439
ag1441
ag1440
ag1434
ag585
ag845
ag1331
ag1333
ag850
ag1250
ag851
ag848
ag849
ag852
ag853
ag1510
ag1511
ag1576
ag567
ag566
ag569
ag568
ag571
ag570
ag573
ag572
ag565
ag564
ag1577
ag735
ag736
ag733
ag734
ag731
ag732
ag1338
ag1339
ag1367
ag1578
ag334
ag333
ag332
ag331
ag330
ag329
ag328
ag327
ag1579
ag440
ag441
ag436
ag437
ag438
ag439
ag1488
ag1572
ag1080
ag1079
ag1082
ag1081
ag1077
ag1078
ag102
ag1074
ag1573
ag1226
ag1227
ag1225
ag1228
ag1229
ag1224
ag1574
ag867
ag866
ag864
ag871
ag869
ag347
ag873
ag872
ag1575
ag1071
ag963
ag964
ag965
ag966
ag967
ag968
ag1570
ag1327
ag1328
ag1571
ag1432
ag1431
ag1430
ag1428
ag1508
ag1454
ag725
ag724
ag728
ag727
ag1453
ag605
ag578
ag580
ag1221
ag1456
ag445
ag446
ag1455
ag1458
ag197
ag194
ag1457
ag124
ag125
ag1460
ag1459
ag1563
ag1562
ag1561
ag1462
ag52
ag51
ag1461
ag1558
ag1509
ag1351
ag67
ag974
ag1349
ag1097
ag1350
ag1355
ag1356
ag470
ag1353
ag606
ag609
ag608
ag1354
ag1389
ag743
ag1357
ag1358
ag207
ag1514
ag1266
ag990
ag989
ag1265
ag886
ag885
ag1264
ag1263
ag1103
ag1104
ag1262
ag1447
ag1449
ag1261
ag1340
ag1260
ag1259
ag1268
ag206
ag205
ag1267
ag1515
ag1111
ag1112
ag1113
ag1315
ag1114
ag1417
ag225
ag1116
ag1117
ag306
ag857
ag1118
ag1107
ag1108
ag1512
ag999
ag43
ag998
ag1001
ag1000
ag1329
ag995
ag994
ag997
ag996
ag1057
ag208
ag993
ag992
ag1513
ag510
ag127
ag511
ag506
ag901
ag1394
ag505
ag497
ag863
ag499
ag495
ag895
ag1506
ag760
ag759
ag758
ag757
ag366
ag764
ag763
ag762
ag761
ag768
ag767
ag1507
ag620
ag621
ag622
ag623
ag616
ag617
ag794
ag619
ag628
ag629
ag1451
ag831
ag934
ag1157
ag1158
ag1155
ag1156
ag1161
ag1162
ag1159
ag1160
ag1163
ag1164
ag935
ag1290
ag1289
ag1288
ag1287
ag1286
ag1285
ag936
ag1382
ag1383
ag1381
ag937
ag1480
ag1481
ag938
ag12
ag10
ag9
ag939
ag84
ag940
ag941
ag942
ag260
ag261
ag262
ag710
ag711
ag1240
ag11
ag13
ag455
ag454
ag457
ag456
ag451
ag1241
ag593
ag594
ag632
ag636
ag595
ag641
ag586
ag1242
ag191
ag190
ag1243
ag322
ag807
ag324
ag325
ag326
ag1244
ag49
ag1245
ag109
ag110
ag1246
ag1438
ag1437
ag1247
ag1553
ag634
ag876
ag1419
ag1239
ag1530
ag1529
ag1531
ag708
ag1093
ag576
ag1092
ag449
ag450
ag1095
ag349
ag346
ag1094
ag204
ag1089
ag1100
ag1088
ag988
ag1091
ag862
ag1090
ag1086
ag1085
ag1442
ag1443
ag709
ag981
ag749
ag982
ag880
ag879
ag979
ag985
ag986
ag983
ag980
ag1099
ag978
ag977
ag1568
ag975
ag66
ag65
ag976
ag130
ag128
ag129
ag131
ag706
ag1065
ag1076
ag117
ag962
ag1073
ag969
ag116
ag1322
ag1323
ag1320
ag1321
ag1325
ag1326
ag1324
ag1318
ag115
ag1235
ag1237
ag1236
ag1232
ag1234
ag1233
ag1231
ag1230
ag122
ag1450
ag596
ag597
ag591
ag592
ag637
ag587
ag588
ag121
ag461
ag460
ag459
ag458
ag8
ag1592
ag1591
ag1589
ag453
ag452
ag120
ag870
ag868
ag350
ag1165
ag337
ag865
ag874
ag875
ag119
ag738
ag737
ag739
ag740
ag741
ag730
ag729
ag493
ag310
ag311
ag312
ag313
ag314
ag1050
ag707
ag48
ag1251
ag1334
ag50
ag46
ag47
ag44
ag45
ag704
ag1537
ag1536
ag1538
ag1540
ag1539
ag1542
ag1541
ag1544
ag1543
ag705
ag891
ag1425
ag1422
ag1423
ag1427
ag574
ag1426
ag1429
ag575
ag702
ag553
ag549
ag538
ag638
ag528
ag517
ag590
ag589
ag703
ag431
ag432
ag142
ag434
ag435
ag1492
ag1269
ag1588
ag352
ag351
ag277
ag86
ag1399
ag1403
ag375
ag387
ag276
ag1499
ag1498
ag1500
ag1501
ag1503
ag1502
ag279
ag26
ag23
ag27
ag28
ag278
ag94
ag93
ag92
ag281
ag172
ag171
ag169
ag170
ag280
ag299
ag294
ag283
ag402
ag404
ag282
ag536
ag285
ag407
ag284
ag354
ag656
ag556
ag657
ag427
ag426
ag428
ag1435
ag658
ag659
ag660
ag1049
ag661
ag662
ag1309
ag663
ag1204
ag1205
ag1206
ag654
ag1504
ag655
ag1406
ag1407
ag1405
ag1408
ag353
ag525
ag1176
ag1177
ag1178
ag1179
ag1180
ag1181
ag524
ag1297
ag1296
ag523
ag931
ag930
ag929
ag795
ag928
ag926
ag522
ag1039
ag1038
ag1037
ag227
ag666
ag667
ag664
ag665
ag520
ag812
ag811
ag814
ag813
ag810
ag519
ag398
ag396
ag399
ag400
ag518
ag530
ag531
ag532
ag534
ag533
ag527
ag163
ag164
ag165
ag166
ag167
ag168
ag526
ag292
ag291
ag290
ag288
ag287
ag356
ag924
ag298
ag297
ag296
ag295
ag293
ag925
ag922
ag91
ag923
ag756
ag1302
ag918
ag755
ag916
ag917
ag355
ag72
ag806
ag805
ag801
ag800
ag803
ag802
ag798
ag797
ag358
ag1168
ag444
ag1171
ag1166
ag1167
ag1173
ag1174
ag357
ag1029
ag1028
ag1031
ag1030
ag1033
ag1032
ag908
ag1201
ag1202
ag1200
ag681
ag1203
ag680
ag1199
ag359
ag1053
ag1052
ag1054
ag1056
ag1055
asS'separator'
p1597
S'='
p1598
sS'sparse'
p1599
I01
sb.