ccopy_reg
_reconstructor
p0
(csklearn.feature_extraction.dict_vectorizer
DictVectorizer
p1
c__builtin__
object
p2
Ntp3
Rp4
(dp5
S'vocabulary_'
p6
(dp7
S'VIOLATOR_INSPECTION_DAY_CNT=454'
p8
I1356
sS'TOTAL_ON_SITE_HRS_SPVR_TRAINEE=59'
p9
I1217
sS'TOTAL_ON_SITE_HRS_SPVR_TRAINEE=56'
p10
I1216
sS'VIOLATOR_INSPECTION_DAY_CNT=101'
p11
I1229
sS'TOTAL_ON_SITE_HRS_SPVR_TRAINEE=50'
p12
I1215
sS'VIOLATOR_INSPECTION_DAY_CNT=451'
p13
I1353
sS'SAMPLE_CNT_RESPDUST=60'
p14
I724
sS'SAMPLE_CNT_RESPDUST=63'
p15
I725
sS'SAMPLE_CNT_RESPDUST=65'
p16
I726
sS'SAMPLE_CNT_RESPDUST=66'
p17
I727
sS'INJ_ILLNESS=Permanent'
p18
I142
sS'PROGRAM_AREA=M/NM--Compliance Follow-up Inspection'
p19
I406
sS'SAMPLE_CNT_RESPDUST=252'
p20
I691
sS'SAMPLE_CNT_DUSTSURVEY=164'
p21
I527
sS'COAL_METAL_IND=C'
p22
I98
sS'VIOLATOR_VIOLATION_CNT=126'
p23
I1453
sS'NO_EMPLOYEES=274'
p24
I228
sS'SAMPLE_CNT_DUSTSURVEY=210'
p25
I536
sS'VIOLATOR_VIOLATION_CNT=121'
p26
I1452
sS'VIOLATOR_VIOLATION_CNT=128'
p27
I1454
sS'VIOLATOR_VIOLATION_CNT=129'
p28
I1455
sS'AVG_MINE_HEIGHT=29'
p29
I73
sS'AVG_MINE_HEIGHT=20'
p30
I70
sS'ACTIVITY=HAZARD COMPLAINT INSPECTION'
p31
I27
sS'AVG_MINE_HEIGHT=24'
p32
I72
sS'PRIMARY_SIC=Sand, Common'
p33
I344
sS'SAMPLE_CNT_RESPDUST=279'
p34
I696
sS'SAMPLE_CNT_DUSTSURVEY=102'
p35
I513
sS'SAMPLE_CNT_DUSTSURVEY=105'
p36
I514
sS'NO_EMPLOYEES=45'
p37
I239
sS'NO_EMPLOYEES=43'
p38
I238
sS'NO_EMPLOYEES=41'
p39
I237
sS'SAMPLE_CNT_AIR=680'
p40
I481
sS'PRIMARY_SIC=Misc. Nonmetallic Mnls. NEC'
p41
I338
sS'SAMPLE_CNT_NOISE=70'
p42
I627
sS'SAMPLE_CNT_NOISE=75'
p43
I628
sS'SAMPLE_CNT_AIR=350'
p44
I462
sS'TOTAL_ON_SITE_HOURS=605'
p45
I1138
sS'VIOLATOR_INSPECTION_DAY_CNT=58'
p46
I1395
sS'VIOLATOR_INSPECTION_DAY_CNT=59'
p47
I1396
sS'VIOLATOR_INSPECTION_DAY_CNT=54'
p48
I1393
sS'VIOLATOR_INSPECTION_DAY_CNT=56'
p49
I1394
sS'VIOLATOR_INSPECTION_DAY_CNT=50'
p50
I1389
sS'VIOLATOR_INSPECTION_DAY_CNT=147'
p51
I1254
sS'VIOLATOR_INSPECTION_DAY_CNT=53'
p52
I1392
sS'TOTAL_ON_SITE_HOURS=289'
p53
I1074
sS'TOTAL_ON_SITE_HOURS=285'
p54
I1073
sS'DAYS_PER_WEEK=0'
p55
I104
sS'DAYS_PER_WEEK=1'
p56
I105
sS'DAYS_PER_WEEK=2'
p57
I106
sS'DAYS_PER_WEEK=3'
p58
I107
sS'DAYS_PER_WEEK=4'
p59
I108
sS'DAYS_PER_WEEK=5'
p60
I109
sS'DAYS_PER_WEEK=6'
p61
I110
sS'DAYS_PER_WEEK=7'
p62
I111
sS'PRIMARY_SIC=Sand, Industrial NEC'
p63
I345
sS'ACTIVITY=VERBAL HAZARD COMPLAINT'
p64
I61
sS'TOTAL_INSP_HOURS=540'
p65
I884
sS'TOTAL_INSP_HOURS=548'
p66
I885
sS'VIOLATOR_INSPECTION_DAY_CNT=387'
p67
I1311
sS'VIOLATOR_INSPECTION_DAY_CNT=383'
p68
I1310
sS'PRIMARY_SIC=Crushed, Broken Limestone NEC'
p69
I313
sS'TOTAL_INSP_HOURS=165'
p70
I806
sS'TOTAL_INSP_HOURS=163'
p71
I805
sS'PILLAR_RECOVERY_USED=N'
p72
I251
sS'SAMPLE_CNT_NOISE=150'
p73
I588
sS'VIOLATOR_VIOLATION_CNT=50'
p74
I1580
sS'PROGRAM_AREA=Coal--Roof Control Technical Investigation'
p75
I390
sS'ACTIVITY=ROOF CONTROL SPOT INSPECTION'
p76
I48
sS'ACTIVE_SECTIONS=3'
p77
I3
sS'ACTIVE_SECTIONS=2'
p78
I2
sS'ACTIVE_SECTIONS=1'
p79
I1
sS'ACTIVE_SECTIONS=0'
p80
I0
sS'ACTIVE_SECTIONS=5'
p81
I6
sS'ACTIVE_SECTIONS=4'
p82
I5
sS'SAMPLE_CNT_RESPDUST=75'
p83
I731
sS'SAMPLE_CNT_RESPDUST=72'
p84
I730
sS'SAMPLE_CNT_RESPDUST=70'
p85
I729
sS'TOTAL_ON_SITE_HRS_SPVR_TRAINEE=68'
p86
I1219
sS'SAMPLE_CNT_RESPDUST=78'
p87
I732
sS'VIOLATOR_VIOLATION_CNT=101'
p88
I1438
sS'PRIMARY_SIC=Crushed, Broken Marble'
p89
I314
sS'ACTIVITY=103(I) SPOT (15 DAY) INSPECTION'
p90
I10
sS'PROGRAM_AREA=M/NM--103 (g) Written Notification Hazard Complaint Inspecti'
p91
I401
sS'TOTAL_INSP_HOURS=47'
p92
I874
sS'VIOLATOR_VIOLATION_CNT=428'
p93
I1571
sS'VIOLATOR_VIOLATION_CNT=139'
p94
I1459
sS'VIOLATOR_VIOLATION_CNT=137'
p95
I1458
sS'VIOLATOR_VIOLATION_CNT=134'
p96
I1457
sS'SAMPLE_CNT_RESPDUST=396'
p97
I709
sS'SAMPLE_CNT_DUSTSURVEY=177'
p98
I531
sS'SAMPLE_CNT_RESPDUST=240'
p99
I688
sS'ACTIVITY=ELECTRICAL SPOT INSPECTION'
p100
I22
sS'LIKELIHOOD='
p101
I143
sS'ACTIVITY=VENTILATION TECHNICAL INSPECTION'
p102
I59
sS'SAMPLE_CNT_AIR=124'
p103
I432
sS'SAMPLE_CNT_RESPDUST=1885'
p104
I676
sS'SAMPLE_CNT_RESPDUST=2759'
p105
I695
sS'SAMPLE_CNT_NOISE=45'
p106
I614
sS'SAMPLE_CNT_NOISE=40'
p107
I613
sS'NO_EMPLOYEES=2'
p108
I219
sS'NO_EMPLOYEES=3'
p109
I231
sS'VIOLATOR_INSPECTION_DAY_CNT=154'
p110
I1256
sS'VIOLATOR_INSPECTION_DAY_CNT=155'
p111
I1257
sS'NO_EMPLOYEES=6'
p112
I242
sS'NO_EMPLOYEES=7'
p113
I243
sS'NO_EMPLOYEES=4'
p114
I236
sS'NO_EMPLOYEES=5'
p115
I240
sS'VIOLATOR_INSPECTION_DAY_CNT=43'
p116
I1334
sS'VIOLATOR_INSPECTION_DAY_CNT=42'
p117
I1326
sS'VIOLATOR_INSPECTION_DAY_CNT=41'
p118
I1320
sS'NO_EMPLOYEES=9'
p119
I245
sS'VIOLATOR_INSPECTION_DAY_CNT=47'
p120
I1372
sS'VIOLATOR_INSPECTION_DAY_CNT=46'
p121
I1362
sS'VIOLATOR_INSPECTION_DAY_CNT=45'
p122
I1351
sS'VIOLATOR_INSPECTION_DAY_CNT=44'
p123
I1342
sS'PRIMARY_SIC=Fire Clay'
p124
I326
sS'TOTAL_ON_SITE_HOURS=252'
p125
I1065
sS'TOTAL_ON_SITE_HOURS=255'
p126
I1066
sS'PRIMARY_SIC=Oil Shale'
p127
I339
sS'TOTAL_ON_SITE_HOURS=702'
p128
I1153
sS'VIOLATOR_VIOLATION_CNT=120'
p129
I1451
sS'VIOLATOR_INSPECTION_DAY_CNT=394'
p130
I1314
sS'VIOLATOR_INSPECTION_DAY_CNT=397'
p131
I1315
sS'VIOLATOR_INSPECTION_DAY_CNT=393'
p132
I1313
sS'VIOLATOR_INSPECTION_DAY_CNT=399'
p133
I1316
sS'PRIMARY_SIC=Ground Silica'
p134
I330
sS'SIG_SUB='
p135
I753
sS'PROD_SHIFTS_PER_DAY=2'
p136
I350
sS'TOTAL_INSP_HOURS=119'
p137
I781
sS'TOTAL_INSP_HOURS=110'
p138
I775
sS'TOTAL_INSP_HOURS=111'
p139
I776
sS'TOTAL_INSP_HOURS=113'
p140
I777
sS'TOTAL_INSP_HOURS=114'
p141
I778
sS'TOTAL_INSP_HOURS=115'
p142
I779
sS'TOTAL_INSP_HOURS=117'
p143
I780
sS'SAMPLE_CNT_NOISE=140'
p144
I587
sS'VIOLATOR_INSPECTION_DAY_CNT=94'
p145
I1429
sS'TOTAL_INSP_HOURS=289'
p146
I837
sS'SAMPLE_CNT_NOISE=1045'
p147
I579
sS'TOTAL_INSP_HOURS=282'
p148
I835
sS'TOTAL_INSP_HOURS=284'
p149
I836
sS'TOTAL_INSP_HOURS=83'
p150
I918
sS'PROGRAM_AREA=Coal--ROOF CONTROL TECHNICAL INVESTIGTION'
p151
I387
sS'PRIMARY_SIC=Common Shale'
p152
I309
sS'SAMPLE_CNT_NOISE=960'
p153
I633
sS'DRAGLINES=1'
p154
I113
sS'DRAGLINES=0'
p155
I112
sS'HOURS_PER_SHIFT=2'
p156
I125
sS'HOURS_PER_SHIFT=0'
p157
I118
sS'HOURS_PER_SHIFT=1'
p158
I119
sS'HOURS_PER_SHIFT=6'
p159
I128
sS'HOURS_PER_SHIFT=7'
p160
I129
sS'HOURS_PER_SHIFT=4'
p161
I126
sS'HOURS_PER_SHIFT=5'
p162
I127
sS'HOURS_PER_SHIFT=8'
p163
I130
sS'HOURS_PER_SHIFT=9'
p164
I131
sS'PROGRAM_AREA=Coal--Health Technical Investigation'
p165
I370
sS'SAMPLE_CNT_RESPDUST=30'
p166
I699
sS'SAMPLE_CNT_AIR=979'
p167
I498
sS'PROGRAM_AREA=Coal--OTHER CONTACTS'
p168
I377
sS'VIOLATOR_VIOLATION_CNT=380'
p169
I1550
sS'VIOLATOR_VIOLATION_CNT=382'
p170
I1551
sS'VIOLATOR_VIOLATION_CNT=383'
p171
I1552
sS'VIOLATOR_VIOLATION_CNT=385'
p172
I1553
sS'VIOLATOR_VIOLATION_CNT=386'
p173
I1554
sS'VIOLATOR_VIOLATION_CNT=387'
p174
I1555
sS'VIOLATOR_VIOLATION_CNT=148'
p175
I1463
sS'VIOLATOR_VIOLATION_CNT=149'
p176
I1464
sS'VIOLATOR_VIOLATION_CNT=144'
p177
I1462
sS'VIOLATOR_VIOLATION_CNT=142'
p178
I1461
sS'SAMPLE_CNT_RESPDUST=270'
p179
I694
sS'INJ_ILLNESS=NoLostDays'
p180
I141
sS'SAMPLE_CNT_AIR=208'
p181
I446
sS'SAMPLE_CNT_AIR=203'
p182
I445
sS'COAL_METAL_IND=M'
p183
I99
sS'SAMPLE_CNT_DUSTSURVEY=166'
p184
I529
sS'SAMPLE_CNT_RESPDUST=250'
p185
I690
sS'SAMPLE_CNT_DUSTSURVEY=165'
p186
I528
sS'SAMPLE_CNT_NOISE=52'
p187
I621
sS'SAMPLE_CNT_NOISE=50'
p188
I619
sS'SAMPLE_CNT_NOISE=51'
p189
I620
sS'SAMPLE_CNT_NOISE=55'
p190
I622
sS'TOTAL_INSP_HOURS=109'
p191
I773
sS'PORTABLE_FIPS_ST_CD=26'
p192
I269
sS'LIKELIHOOD=Occurred'
p193
I146
sS'ACTIVE_SECTIONS=30'
p194
I4
sS'SAMPLE_CNT_DUSTSPOT=267'
p195
I503
sS'SAMPLE_CNT_DUSTSURVEY=1120'
p196
I517
sS'VIOLATOR_INSPECTION_DAY_CNT=126'
p197
I1246
sS'VIOLATOR_INSPECTION_DAY_CNT=125'
p198
I1245
sS'VIOLATOR_INSPECTION_DAY_CNT=128'
p199
I1247
sS'TOTAL_INSP_HOURS=89'
p200
I923
sS'SAMPLE_CNT_OTHER=32'
p201
I635
sS'TOTAL_ON_SITE_HOURS=249'
p202
I1063
sS'TOTAL_INSP_HOURS=81'
p203
I916
sS'TOTAL_INSP_HOURS=80'
p204
I915
sS'TOTAL_ON_SITE_HOURS=244'
p205
I1062
sS'TOTAL_INSP_HOURS=82'
p206
I917
sS'TOTAL_INSP_HOURS=85'
p207
I920
sS'TOTAL_INSP_HOURS=84'
p208
I919
sS'TOTAL_INSP_HOURS=87'
p209
I922
sS'TOTAL_INSP_HOURS=86'
p210
I921
sS'PROGRAM_AREA=Coal--ACCIDENT PREVENTION SPOT INSPECTION'
p211
I361
sS'VIOLATOR_INSPECTION_DAY_CNT=235'
p212
I1280
sS'TOTAL_ON_SITE_HOURS=487'
p213
I1119
sS'TOTAL_ON_SITE_HOURS=481'
p214
I1118
sS'TOTAL_ON_SITE_HOURS=397'
p215
I1096
sS'TOTAL_ON_SITE_HOURS=679'
p216
I1148
sS'TOTAL_INSP_HOURS=190'
p217
I813
sS'PRIMARY_SIC=Chem. and Fertil. Mnls. NEC'
p218
I305
sS'TOTAL_INSP_HOURS=108'
p219
I772
sS'SAMPLE_CNT_DUSTSURVEY=89'
p220
I570
sS'TOTAL_INSP_HOURS=103'
p221
I768
sS'TOTAL_INSP_HOURS=102'
p222
I767
sS'TOTAL_INSP_HOURS=101'
p223
I766
sS'TOTAL_INSP_HOURS=100'
p224
I765
sS'TOTAL_INSP_HOURS=107'
p225
I771
sS'TOTAL_INSP_HOURS=106'
p226
I770
sS'TOTAL_INSP_HOURS=105'
p227
I769
sS'PRIMARY_SIC=Copper Ore NEC'
p228
I311
sS'PRIMARY_SIC=Dimension Granite'
p229
I319
sS'SAMPLE_CNT_RESPDUST=400'
p230
I711
sS'NO_AFFECTED=31'
p231
I198
sS'TOTAL_INSP_HOURS=291'
p232
I839
sS'PROGRAM_AREA=Coal--Shaft, Slope or Major Construction Spot Inspection'
p233
I393
sS'TOTAL_ON_SITE_HOURS=54'
p234
I1128
sS'SAMPLE_CNT_NOISE=352'
p235
I608
sS'VIOLATOR_VIOLATION_CNT=34'
p236
I1526
sS'SAMPLE_CNT_NOISE=357'
p237
I609
sS'PROGRAM_AREA=Coal--Verbal Hazard Complaint Inspections'
p238
I398
sS'TOTAL_INSP_HOURS=63'
p239
I895
sS'TOTAL_INSP_HOURS=62'
p240
I894
sS'LIKELIHOOD=Reasonably'
p241
I147
sS'TOTAL_INSP_HOURS=60'
p242
I892
sS'TOTAL_INSP_HOURS=67'
p243
I900
sS'TOTAL_INSP_HOURS=66'
p244
I899
sS'TOTAL_INSP_HOURS=65'
p245
I898
sS'TOTAL_INSP_HOURS=64'
p246
I896
sS'TOTAL_INSP_HOURS=69'
p247
I902
sS'TOTAL_INSP_HOURS=68'
p248
I901
sS'PRIMARY_SIC=Dimension Limestone'
p249
I320
sS'SAMPLE_CNT_NOISE=284'
p250
I600
sS'NO_AFFECTED=6'
p251
I201
sS'NO_AFFECTED=7'
p252
I202
sS'NO_AFFECTED=4'
p253
I199
sS'NO_AFFECTED=5'
p254
I200
sS'NO_AFFECTED=2'
p255
I193
sS'NO_AFFECTED=3'
p256
I196
sS'NO_AFFECTED=0'
p257
I184
sS'NO_AFFECTED=1'
p258
I185
sS'NO_AFFECTED=8'
p259
I204
sS'NO_AFFECTED=9'
p260
I205
sS'HOURS_PER_SHIFT=14'
p261
I123
sS'HOURS_PER_SHIFT=16'
p262
I124
sS'HOURS_PER_SHIFT=10'
p263
I120
sS'HOURS_PER_SHIFT=11'
p264
I121
sS'HOURS_PER_SHIFT=12'
p265
I122
sS'SAMPLE_CNT_RESPDUST=10'
p266
I638
sS'SAMPLE_CNT_RESPDUST=12'
p267
I645
sS'UNCLASSIFIED_CONSTR=0'
p268
I1223
sS'UNCLASSIFIED_CONSTR=1'
p269
I1224
sS'UNCLASSIFIED_CONSTR=2'
p270
I1225
sS'SAMPLE_CNT_RESPDUST=16'
p271
I665
sS'SAMPLE_CNT_RESPDUST=18'
p272
I675
sS'AVG_MINE_HEIGHT=0'
p273
I67
sS'AVG_MINE_HEIGHT=1'
p274
I68
sS'PROGRAM_AREA=Coal--Regular Inspection'
p275
I388
sS'ACTIVITY=Other Technical Compliance Investigations'
p276
I39
sS'ACTIVITY=RESP DUST TECH INSP - SURFACE MINES'
p277
I44
sS'IDLE_SECTIONS=1'
p278
I133
sS'IDLE_SECTIONS=0'
p279
I132
sS'IDLE_SECTIONS=2'
p280
I134
sS'PRIMARY_SIC=Construction Sand and Gravel'
p281
I310
sS'ACTIVITY=RESP DUST TECH INSP - U. G. MINES'
p282
I45
sS'PRIMARY_SIC=Gold Ore'
p283
I329
sS'VIOLATOR_VIOLATION_CNT=11'
p284
I1443
sS'VIOLATOR_VIOLATION_CNT=10'
p285
I1437
sS'VIOLATOR_VIOLATION_CNT=13'
p286
I1456
sS'VIOLATOR_VIOLATION_CNT=12'
p287
I1450
sS'VIOLATOR_VIOLATION_CNT=15'
p288
I1465
sS'VIOLATOR_VIOLATION_CNT=14'
p289
I1460
sS'VIOLATOR_VIOLATION_CNT=17'
p290
I1472
sS'VIOLATOR_VIOLATION_CNT=16'
p291
I1469
sS'VIOLATOR_VIOLATION_CNT=19'
p292
I1476
sS'VIOLATOR_VIOLATION_CNT=18'
p293
I1474
sS'ACTIVITY=Shaft, Slope or Major Construction Spot Inspection'
p294
I57
sS'VIOLATOR_VIOLATION_CNT=398'
p295
I1561
sS'VIOLATOR_VIOLATION_CNT=396'
p296
I1560
sS'ACTIVITY=MISCELLANEOUS INSPECTION/INVESTIGATION'
p297
I30
sS'VIOLATOR_VIOLATION_CNT=393'
p298
I1559
sS'VIOLATOR_VIOLATION_CNT=392'
p299
I1558
sS'VIOLATOR_VIOLATION_CNT=390'
p300
I1557
sS'VIOLATOR_VIOLATION_CNT=158'
p301
I1468
sS'VIOLATOR_VIOLATION_CNT=408'
p302
I1568
sS'VIOLATOR_VIOLATION_CNT=154'
p303
I1467
sS'VIOLATOR_VIOLATION_CNT=405'
p304
I1567
sS'VIOLATOR_VIOLATION_CNT=404'
p305
I1566
sS'VIOLATOR_VIOLATION_CNT=403'
p306
I1565
sS'VIOLATOR_VIOLATION_CNT=402'
p307
I1564
sS'VIOLATOR_VIOLATION_CNT=152'
p308
I1466
sS'PROGRAM_AREA=Coal--NONFATAL INJURY ACCIDENT INV'
p309
I374
sS'SAMPLE_CNT_DUSTSPOT=83'
p310
I510
sS'SAMPLE_CNT_AIR=740'
p311
I487
sS'SAMPLE_CNT_DUSTSURVEY=150'
p312
I524
sS'SAMPLE_CNT_DUSTSURVEY=154'
p313
I525
sS'PROGRAM_AREA=Coal--ROOF CONTROL TECHNICAL INSPECTION'
p314
I386
sS'TOTAL_ON_SITE_HOURS=565'
p315
I1131
sS'SAMPLE_CNT_NOISE=27'
p316
I599
sS'SAMPLE_CNT_NOISE=26'
p317
I598
sS'SAMPLE_CNT_NOISE=25'
p318
I596
sS'SAMPLE_CNT_RESPDUST=282'
p319
I697
sS'VIOLATOR_INSPECTION_DAY_CNT=480'
p320
I1382
sS'VIOLATOR_INSPECTION_DAY_CNT=481'
p321
I1383
sS'VIOLATOR_INSPECTION_DAY_CNT=482'
p322
I1384
sS'VIOLATOR_INSPECTION_DAY_CNT=483'
p323
I1385
sS'TOTAL_INSP_HOURS=61'
p324
I893
sS'SAMPLE_CNT_AIR=100'
p325
I424
sS'SAMPLE_CNT_AIR=105'
p326
I427
sS'SAMPLE_CNT_AIR=104'
p327
I426
sS'AVG_MINE_HEIGHT=72'
p328
I93
sS'AVG_MINE_HEIGHT=70'
p329
I92
sS'SAMPLE_CNT_AIR=580'
p330
I477
sS'SAMPLE_CNT_AIR=564'
p331
I476
sS'VIOLATOR_INSPECTION_DAY_CNT=130'
p332
I1249
sS'ACTIVITY=Regular Inspection'
p333
I51
sS'VIOLATOR_INSPECTION_DAY_CNT=132'
p334
I1251
sS'VIOLATOR_INSPECTION_DAY_CNT=133'
p335
I1252
sS'TOTAL_ON_SITE_HOURS=128'
p336
I993
sS'TOTAL_ON_SITE_HOURS=127'
p337
I992
sS'TOTAL_ON_SITE_HOURS=126'
p338
I991
sS'TOTAL_ON_SITE_HOURS=125'
p339
I990
sS'TOTAL_ON_SITE_HOURS=124'
p340
I989
sS'TOTAL_ON_SITE_HOURS=123'
p341
I988
sS'TOTAL_ON_SITE_HOURS=122'
p342
I987
sS'TOTAL_ON_SITE_HOURS=121'
p343
I986
sS'TOTAL_ON_SITE_HOURS=120'
p344
I985
sS'PRIMARY_SIC=Kaolin and Ball Clay'
p345
I333
sS'VIOLATOR_INSPECTION_DAY_CNT=466'
p346
I1368
sS'TOTAL_INSP_HOURS=99'
p347
I932
sS'TOTAL_INSP_HOURS=96'
p348
I931
sS'TOTAL_INSP_HOURS=94'
p349
I929
sS'TOTAL_INSP_HOURS=95'
p350
I930
sS'TOTAL_INSP_HOURS=92'
p351
I927
sS'TOTAL_INSP_HOURS=93'
p352
I928
sS'TOTAL_INSP_HOURS=90'
p353
I925
sS'TOTAL_INSP_HOURS=91'
p354
I926
sS'ACTIVITY=Roof Control Technical Investigation'
p355
I53
sS'VIOLATOR_INSPECTION_DAY_CNT=228'
p356
I1278
sS'TOTAL_ON_SITE_HOURS=167'
p357
I1025
sS'SAMPLE_CNT_OTHER=0'
p358
I634
sS'VIOLATOR_INSPECTION_DAY_CNT=222'
p359
I1277
sS'VIOLATOR_INSPECTION_DAY_CNT=463'
p360
I1365
sS'VIOLATOR_VIOLATION_CNT=1'
p361
I1436
sS'VIOLATOR_VIOLATION_CNT=0'
p362
I1435
sS'VIOLATOR_VIOLATION_CNT=3'
p363
I1504
sS'VIOLATOR_VIOLATION_CNT=2'
p364
I1477
sS'VIOLATOR_VIOLATION_CNT=5'
p365
I1579
sS'VIOLATOR_VIOLATION_CNT=4'
p366
I1562
sS'VIOLATOR_VIOLATION_CNT=7'
p367
I1597
sS'VIOLATOR_VIOLATION_CNT=6'
p368
I1589
sS'VIOLATOR_VIOLATION_CNT=9'
p369
I1612
sS'PROGRAM_AREA=M/NM--Other Technical Compliance Investigations'
p370
I412
sS'PRIMARY_SIC=Feldspar'
p371
I325
sS'PROGRAM_AREA=M/NM--Verbal Hazard Complaint Inspections'
p372
I419
sS'PRIMARY_CANVASS=Metal'
p373
I295
sS'AVG_MINE_HEIGHT=108'
p374
I69
sS'SAMPLE_CNT_RESPDUST=833'
p375
I735
sS'TOTAL_ON_SITE_HOURS=839'
p376
I1169
sS'PROGRAM_AREA=M/NM--HAZARD COMPLAINT INSPECTION'
p377
I407
sS'TOTAL_INSP_HOURS=137'
p378
I791
sS'TOTAL_INSP_HOURS=133'
p379
I790
sS'SAMPLE_CNT_NOISE=165'
p380
I591
sS'SAMPLE_CNT_NOISE=160'
p381
I590
sS'MINE_TYPE=Surface'
p382
I156
sS'NEGLIGENCE=Reckless'
p383
I183
sS'PRIMARY_SIC=Gypsum'
p384
I331
sS'VIOLATOR_VIOLATION_CNT=107'
p385
I1441
sS'TOTAL_INSP_HOURS=70'
p386
I904
sS'TOTAL_INSP_HOURS=71'
p387
I905
sS'TOTAL_INSP_HOURS=72'
p388
I906
sS'TOTAL_INSP_HOURS=73'
p389
I907
sS'TOTAL_INSP_HOURS=74'
p390
I908
sS'TOTAL_INSP_HOURS=75'
p391
I909
sS'TOTAL_INSP_HOURS=76'
p392
I910
sS'TOTAL_INSP_HOURS=77'
p393
I911
sS'TOTAL_INSP_HOURS=78'
p394
I912
sS'TOTAL_INSP_HOURS=79'
p395
I913
sS'SAMPLE_CNT_NOISE=295'
p396
I601
sS'VIOLATOR_VIOLATION_CNT=109'
p397
I1442
sS'SAMPLE_CNT_RESPDUST=24'
p398
I687
sS'SAMPLE_CNT_RESPDUST=25'
p399
I689
sS'SAMPLE_CNT_RESPDUST=26'
p400
I692
sS'SAMPLE_CNT_RESPDUST=27'
p401
I693
sS'SAMPLE_CNT_RESPDUST=20'
p402
I679
sS'ASMT_GENERATED_IND=N'
p403
I66
sS'PRIMARY_SIC=Gilsonite'
p404
I328
sS'PRIMARY_SIC=Dimension Sandstone'
p405
I322
sS'VIOLATOR_VIOLATION_CNT=362'
p406
I1539
sS'SAMPLE_CNT_AIR=825'
p407
I490
sS'VIOLATOR_VIOLATION_CNT=361'
p408
I1538
sS'VIOLATOR_VIOLATION_CNT=364'
p409
I1540
sS'VIOLATOR_VIOLATION_CNT=368'
p410
I1541
sS'VIOLATOR_VIOLATION_CNT=163'
p411
I1470
sS'PRIMARY_SIC=Quartz, Ground'
p412
I342
sS'VIOLATOR_VIOLATION_CNT=168'
p413
I1471
sS'SAMPLE_CNT_RESPDUST=15'
p414
I662
sS'SAMPLE_CNT_RESPDUST=14'
p415
I656
sS'VIOLATOR_VIOLATION_CNT=180'
p416
I1475
sS'INJ_ILLNESS=Fatal'
p417
I139
sS'SAMPLE_CNT_DUSTSURVEY=141'
p418
I521
sS'SAMPLE_CNT_DUSTSURVEY=148'
p419
I522
sS'NEGLIGENCE=LowNegligence'
p420
I180
sS'SAMPLE_CNT_AIR=3430'
p421
I461
sS'SAMPLE_CNT_NOISE=35'
p422
I607
sS'SAMPLE_CNT_NOISE=36'
p423
I610
sS'SAMPLE_CNT_NOISE=30'
p424
I602
sS'SAMPLE_CNT_NOISE=31'
p425
I603
sS'SAMPLE_CNT_NOISE=32'
p426
I604
sS'SAMPLE_CNT_NOISE=33'
p427
I605
sS'SAMPLE_CNT_NOISE=38'
p428
I611
sS'PRIMARY_OR_MILL=Mill'
p429
I300
sS'AVG_MINE_HEIGHT=65'
p430
I90
sS'AVG_MINE_HEIGHT=66'
p431
I91
sS'PRIMARY_CANVASS=Coal'
p432
I294
sS'AVG_MINE_HEIGHT=60'
p433
I89
sS'PROGRAM_AREA=Coal--NON-INJURY ACCIDENT INVESTIGATION'
p434
I373
sS'VIOLATOR_VIOLATION_CNT=212'
p435
I1482
sS'VIOLATOR_VIOLATION_CNT=211'
p436
I1481
sS'VIOLATOR_VIOLATION_CNT=214'
p437
I1483
sS'PRIMARY_SIC=Crushed, Broken Sandstone'
p438
I315
sS'SIG_SUB=Y'
p439
I755
sS'VIOLATOR_INSPECTION_DAY_CNT=90'
p440
I1427
sS'VIOLATOR_INSPECTION_DAY_CNT=91'
p441
I1428
sS'SIG_SUB=N'
p442
I754
sS'VIOLATOR_INSPECTION_DAY_CNT=96'
p443
I1430
sS'VIOLATOR_INSPECTION_DAY_CNT=97'
p444
I1431
sS'TOTAL_ON_SITE_HOURS=134'
p445
I998
sS'TOTAL_ON_SITE_HOURS=135'
p446
I999
sS'TOTAL_ON_SITE_HOURS=136'
p447
I1000
sS'TOTAL_ON_SITE_HOURS=137'
p448
I1001
sS'TOTAL_ON_SITE_HOURS=130'
p449
I995
sS'TOTAL_ON_SITE_HOURS=131'
p450
I996
sS'TOTAL_ON_SITE_HOURS=133'
p451
I997
sS'ACTIVITY=103 (g) Written Notification Hazard Complaint Inspectio'
p452
I7
sS'SAMPLE_CNT_AIR=84'
p453
I492
sS'VIOLATOR_VIOLATION_CNT=62'
p454
I1591
sS'TOTAL_ON_SITE_HOURS=225'
p455
I1057
sS'TOTAL_ON_SITE_HOURS=226'
p456
I1058
sS'TOTAL_INSP_HOURS=347'
p457
I852
sS'TOTAL_INSP_HOURS=346'
p458
I851
sS'VIOLATOR_INSPECTION_DAY_CNT=210'
p459
I1274
sS'VIOLATOR_INSPECTION_DAY_CNT=212'
p460
I1275
sS'VIOLATOR_INSPECTION_DAY_CNT=108'
p461
I1235
sS'VIOLATOR_INSPECTION_DAY_CNT=459'
p462
I1361
sS'VIOLATOR_INSPECTION_DAY_CNT=458'
p463
I1360
sS'VIOLATOR_INSPECTION_DAY_CNT=105'
p464
I1232
sS'VIOLATOR_INSPECTION_DAY_CNT=104'
p465
I1231
sS'VIOLATOR_INSPECTION_DAY_CNT=107'
p466
I1234
sS'VIOLATOR_INSPECTION_DAY_CNT=106'
p467
I1233
sS'VIOLATOR_INSPECTION_DAY_CNT=453'
p468
I1355
sS'VIOLATOR_INSPECTION_DAY_CNT=452'
p469
I1354
sS'VIOLATOR_INSPECTION_DAY_CNT=103'
p470
I1230
sS'VIOLATOR_INSPECTION_DAY_CNT=450'
p471
I1352
sS'SAMPLE_CNT_DUSTSURVEY=13'
p472
I519
sS'SAMPLE_CNT_DUSTSURVEY=12'
p473
I518
sS'SAMPLE_CNT_DUSTSURVEY=10'
p474
I512
sS'SAMPLE_CNT_DUSTSURVEY=17'
p475
I530
sS'SAMPLE_CNT_DUSTSURVEY=16'
p476
I526
sS'SAMPLE_CNT_DUSTSURVEY=15'
p477
I523
sS'SAMPLE_CNT_DUSTSURVEY=14'
p478
I520
sS'SAMPLE_CNT_DUSTSURVEY=18'
p479
I532
sS'TOTAL_ON_SITE_HOURS=353'
p480
I1086
sS'TOTAL_INSP_HOURS=120'
p481
I783
sS'TOTAL_INSP_HOURS=123'
p482
I785
sS'TOTAL_INSP_HOURS=122'
p483
I784
sS'TOTAL_INSP_HOURS=125'
p484
I787
sS'TOTAL_INSP_HOURS=124'
p485
I786
sS'TOTAL_INSP_HOURS=128'
p486
I788
sS'PROGRAM_AREA=M/NM--Non-Chargeable Accident Investigation'
p487
I410
sS'ACTIVITY=CODE-A-PHONE SPOT INSPECTION'
p488
I17
sS'AVG_MINE_HEIGHT=204'
p489
I71
sS'SAMPLE_CNT_NOISE=330'
p490
I606
sS'TOTAL_INSP_HOURS=45'
p491
I870
sS'TOTAL_INSP_HOURS=44'
p492
I869
sS'PROGRAM_AREA=M/NM--Non-Fatal Accident Investigation'
p493
I411
sS'TOTAL_INSP_HOURS=46'
p494
I872
sS'TOTAL_INSP_HOURS=41'
p495
I866
sS'TOTAL_INSP_HOURS=40'
p496
I862
sS'TOTAL_INSP_HOURS=43'
p497
I868
sS'TOTAL_INSP_HOURS=42'
p498
I867
sS'TOTAL_INSP_HOURS=49'
p499
I877
sS'TOTAL_INSP_HOURS=48'
p500
I876
sS'SAMPLE_CNT_RESPDUST=990'
p501
I747
sS'VIOLATOR_INSPECTION_DAY_CNT=49'
p502
I1387
sS'VIOLATOR_INSPECTION_DAY_CNT=48'
p503
I1381
sS'TOTAL_INSP_HOURS=39'
p504
I858
sS'TOTAL_ON_SITE_HOURS=78'
p505
I1162
sS'SAMPLE_CNT_AIR=1494'
p506
I436
sS'TOTAL_ON_SITE_HOURS=76'
p507
I1159
sS'SAMPLE_CNT_RESPDUST=38'
p508
I708
sS'TOTAL_ON_SITE_HOURS=77'
p509
I1161
sS'SAMPLE_CNT_RESPDUST=32'
p510
I702
sS'SAMPLE_CNT_RESPDUST=31'
p511
I701
sS'SAMPLE_CNT_DUSTSPOT=0'
p512
I499
sS'SAMPLE_CNT_RESPDUST=36'
p513
I706
sS'SAMPLE_CNT_RESPDUST=35'
p514
I704
sS'TOTAL_ON_SITE_HOURS=75'
p515
I1158
sS'TOTAL_ON_SITE_HOURS=72'
p516
I1155
sS'TOTAL_ON_SITE_HOURS=73'
p517
I1156
sS'ACTIVITY=103(i) Spot Inspections'
p518
I12
sS'SAMPLE_CNT_RESPDUST=1664'
p519
I669
sS'TOTAL_ON_SITE_HOURS=70'
p520
I1152
sS'TOTAL_ON_SITE_HOURS=71'
p521
I1154
sS'SAMPLE_CNT_AIR=18'
p522
I441
sS'SAMPLE_CNT_AIR=12'
p523
I430
sS'SAMPLE_CNT_AIR=10'
p524
I423
sS'SAMPLE_CNT_AIR=16'
p525
I440
sS'SAMPLE_CNT_AIR=15'
p526
I437
sS'VIOLATOR_INSPECTION_DAY_CNT=86'
p527
I1423
sS'VIOLATOR_VIOLATION_CNT=37'
p528
I1542
sS'VIOLATOR_VIOLATION_CNT=36'
p529
I1537
sS'VIOLATOR_VIOLATION_CNT=35'
p530
I1531
sS'NEGLIGENCE=ModNegligence'
p531
I181
sS'VIOLATOR_VIOLATION_CNT=33'
p532
I1522
sS'VIOLATOR_VIOLATION_CNT=32'
p533
I1515
sS'VIOLATOR_VIOLATION_CNT=31'
p534
I1512
sS'VIOLATOR_VIOLATION_CNT=30'
p535
I1505
sS'VIOLATOR_VIOLATION_CNT=39'
p536
I1556
sS'VIOLATOR_VIOLATION_CNT=38'
p537
I1549
sS'VIOLATOR_INSPECTION_DAY_CNT=85'
p538
I1422
sS'PRIMARY_SIC=Phosphate Rock'
p539
I340
sS'VIOLATOR_VIOLATION_CNT=371'
p540
I1544
sS'VIOLATOR_VIOLATION_CNT=370'
p541
I1543
sS'VIOLATOR_VIOLATION_CNT=373'
p542
I1545
sS'VIOLATOR_VIOLATION_CNT=377'
p543
I1546
sS'VIOLATOR_VIOLATION_CNT=379'
p544
I1548
sS'VIOLATOR_VIOLATION_CNT=378'
p545
I1547
sS'SAMPLE_CNT_AIR=837'
p546
I491
sS'VIOLATOR_VIOLATION_CNT=172'
p547
I1473
sS'ACTIVITY=Ventilation Technical Investigation'
p548
I62
sS'VIOLATOR_INSPECTION_DAY_CNT=83'
p549
I1420
sS'SAMPLE_CNT_DUSTSPOT=69'
p550
I507
sS'SAMPLE_CNT_DUSTSPOT=66'
p551
I506
sS'SAMPLE_CNT_RESPDUST=350'
p552
I705
sS'NO_EMPLOYEES=18'
p553
I218
sS'NO_EMPLOYEES=10'
p554
I208
sS'NO_EMPLOYEES=12'
p555
I211
sS'NO_EMPLOYEES=13'
p556
I212
sS'NO_EMPLOYEES=14'
p557
I213
sS'NO_EMPLOYEES=16'
p558
I214
sS'NO_EMPLOYEES=17'
p559
I216
sS'VIOLATOR_INSPECTION_DAY_CNT=82'
p560
I1419
sS'SAMPLE_CNT_DUSTSURVEY=198'
p561
I534
sS'NO_EMPLOYEES=179'
p562
I217
sS'SAMPLE_CNT_DUSTSURVEY=192'
p563
I533
sS'VIOLATOR_INSPECTION_DAY_CNT=81'
p564
I1418
sS'SAMPLE_CNT_RESPDUST=198'
p565
I678
sS'AVG_MINE_HEIGHT=50'
p566
I88
sS'VIOLATOR_VIOLATION_CNT=204'
p567
I1479
sS'SPECIAL_ASSESS=N'
p568
I756
sS'SPECIAL_ASSESS=Y'
p569
I757
sS'PRIMARY_SIC=Coal (Bituminous)'
p570
I307
sS'SAMPLE_CNT_RESPDUST=176'
p571
I673
sS'SAMPLE_CNT_RESPDUST=175'
p572
I672
sS'SAMPLE_CNT_RESPDUST=170'
p573
I671
sS'ACTIVITY=NONFATAL INJURY ACCIDENT INV'
p574
I34
sS'TOTAL_ON_SITE_HOURS=109'
p575
I973
sS'TOTAL_ON_SITE_HOURS=108'
p576
I972
sS'TOTAL_ON_SITE_HOURS=101'
p577
I965
sS'TOTAL_ON_SITE_HOURS=100'
p578
I964
sS'TOTAL_ON_SITE_HOURS=103'
p579
I967
sS'TOTAL_ON_SITE_HOURS=102'
p580
I966
sS'TOTAL_ON_SITE_HOURS=105'
p581
I969
sS'TOTAL_ON_SITE_HOURS=104'
p582
I968
sS'TOTAL_ON_SITE_HOURS=107'
p583
I971
sS'TOTAL_ON_SITE_HOURS=106'
p584
I970
sS'SAMPLE_CNT_AIR=495'
p585
I470
sS'TOTAL_ON_SITE_HOURS=199'
p586
I1044
sS'VIOLATOR_INSPECTION_DAY_CNT=79'
p587
I1416
sS'VIOLATOR_INSPECTION_DAY_CNT=206'
p588
I1272
sS'TOTAL_INSP_HOURS=332'
p589
I846
sS'TOTAL_ON_SITE_HOURS=211'
p590
I1053
sS'TOTAL_INSP_HOURS=335'
p591
I847
sS'TOTAL_ON_SITE_HOURS=213'
p592
I1054
sS'TOTAL_INSP_HOURS=337'
p593
I848
sS'TOTAL_INSP_HOURS=338'
p594
I849
sS'SAMPLE_CNT_DUSTSURVEY=3'
p595
I545
sS'SAMPLE_CNT_DUSTSURVEY=0'
p596
I511
sS'TOTAL_INSP_HRS_SPVR_TRAINEE=29'
p597
I950
sS'VIOLATOR_INSPECTION_DAY_CNT=119'
p598
I1243
sS'VIOLATOR_INSPECTION_DAY_CNT=448'
p599
I1349
sS'VIOLATOR_INSPECTION_DAY_CNT=449'
p600
I1350
sS'VIOLATOR_INSPECTION_DAY_CNT=89'
p601
I1425
sS'VIOLATOR_INSPECTION_DAY_CNT=88'
p602
I1424
sS'VIOLATOR_INSPECTION_DAY_CNT=444'
p603
I1346
sS'VIOLATOR_INSPECTION_DAY_CNT=445'
p604
I1347
sS'VIOLATOR_INSPECTION_DAY_CNT=110'
p605
I1237
sS'VIOLATOR_INSPECTION_DAY_CNT=111'
p606
I1238
sS'VIOLATOR_INSPECTION_DAY_CNT=116'
p607
I1241
sS'VIOLATOR_INSPECTION_DAY_CNT=441'
p608
I1344
sS'VIOLATOR_INSPECTION_DAY_CNT=442'
p609
I1345
sS'SAMPLE_CNT_DUSTSURVEY=26'
p610
I542
sS'SAMPLE_CNT_DUSTSURVEY=24'
p611
I539
sS'SAMPLE_CNT_DUSTSURVEY=25'
p612
I541
sS'SAMPLE_CNT_DUSTSURVEY=22'
p613
I537
sS'SAMPLE_CNT_DUSTSURVEY=23'
p614
I538
sS'SAMPLE_CNT_DUSTSURVEY=20'
p615
I535
sS'SAMPLE_CNT_DUSTSURVEY=28'
p616
I544
sS'TOTAL_ON_SITE_HOURS=210'
p617
I1052
sS'TOTAL_ON_SITE_HOURS=360'
p618
I1088
sS'SAMPLE_CNT_DUSTSURVEY=9'
p619
I571
sS'TOTAL_ON_SITE_HOURS=367'
p620
I1090
sS'TOTAL_ON_SITE_HOURS=366'
p621
I1089
sS'REFUSE_PILES=N'
p622
I420
sS'PRIMARY_SIC=Dimension Slate'
p623
I323
sS'PROGRAM_AREA=Coal--RESP DUST TECH INSP - SURFACE MINES'
p624
I381
sS'SAMPLE_CNT_NOISE=102'
p625
I578
sS'SAMPLE_CNT_NOISE=100'
p626
I577
sS'REFUSE_PILES=Y'
p627
I421
sS'TOTAL_ON_SITE_HOURS=94'
p628
I1181
sS'TOTAL_ON_SITE_HOURS=95'
p629
I1182
sS'TOTAL_INSP_HOURS=58'
p630
I889
sS'TOTAL_ON_SITE_HOURS=97'
p631
I1184
sS'TOTAL_ON_SITE_HOURS=90'
p632
I1177
sS'TOTAL_ON_SITE_HOURS=91'
p633
I1178
sS'TOTAL_ON_SITE_HOURS=92'
p634
I1179
sS'TOTAL_ON_SITE_HOURS=93'
p635
I1180
sS'TOTAL_INSP_HOURS=52'
p636
I881
sS'TOTAL_INSP_HOURS=53'
p637
I882
sS'TOTAL_INSP_HOURS=50'
p638
I879
sS'TOTAL_INSP_HOURS=51'
p639
I880
sS'TOTAL_ON_SITE_HOURS=98'
p640
I1185
sS'TOTAL_ON_SITE_HOURS=99'
p641
I1186
sS'TOTAL_INSP_HOURS=54'
p642
I883
sS'TOTAL_INSP_HOURS=55'
p643
I886
sS'VIOLATOR_INSPECTION_DAY_CNT=112'
p644
I1239
sS'ACTIVITY=Electrical Technical Investigation'
p645
I23
sS'VIOLATOR_INSPECTION_DAY_CNT=179'
p646
I1263
sS'SAMPLE_CNT_RESPDUST=984'
p647
I746
sS'VIOLATOR_INSPECTION_DAY_CNT=113'
p648
I1240
sS'VIOLATOR_INSPECTION_DAY_CNT=446'
p649
I1348
sS'VIOLATOR_INSPECTION_DAY_CNT=84'
p650
I1421
sS'ACTIVITY=FREE SILICA TECHNICAL INVESTIGATION'
p651
I24
sS'PROGRAM_AREA=Coal--SAFETY & HEALTH (SATURATION) INSP'
p652
I391
sS'VIOLATOR_INSPECTION_DAY_CNT=117'
p653
I1242
sS'SAMPLE_CNT_NOISE=252'
p654
I597
sS'ACTIVITY=HAULAGE TECHNICAL INSPECTION'
p655
I26
sS'SAMPLE_CNT_RESPDUST=1278'
p656
I650
sS'TOTAL_INSP_HOURS=469'
p657
I873
sS'SAMPLE_CNT_RESPDUST=1494'
p658
I661
sS'SAMPLE_CNT_DUSTSPOT=37'
p659
I504
sS'SAMPLE_CNT_AIR=27'
p660
I453
sS'SAMPLE_CNT_AIR=24'
p661
I448
sS'SAMPLE_CNT_AIR=22'
p662
I447
sS'SAMPLE_CNT_AIR=20'
p663
I444
sS'PORTABLE_FIPS_ST_CD='
p664
I252
sS'PRIMARY_SIC=Amethyst'
p665
I302
sS'PROGRAM_AREA=M/NM--COMPLIANCE FOLLOW-UP INSPECTION'
p666
I405
sS'VIOLATOR_VIOLATION_CNT=28'
p667
I1497
sS'VIOLATOR_VIOLATION_CNT=29'
p668
I1499
sS'VIOLATOR_VIOLATION_CNT=20'
p669
I1478
sS'VIOLATOR_VIOLATION_CNT=21'
p670
I1480
sS'VIOLATOR_VIOLATION_CNT=22'
p671
I1485
sS'VIOLATOR_VIOLATION_CNT=23'
p672
I1487
sS'VIOLATOR_VIOLATION_CNT=24'
p673
I1488
sS'VIOLATOR_VIOLATION_CNT=25'
p674
I1490
sS'VIOLATOR_VIOLATION_CNT=26'
p675
I1491
sS'VIOLATOR_VIOLATION_CNT=27'
p676
I1493
sS'VIOLATOR_VIOLATION_CNT=345'
p677
I1529
sS'VIOLATOR_VIOLATION_CNT=346'
p678
I1530
sS'VIOLATOR_VIOLATION_CNT=341'
p679
I1527
sS'VIOLATOR_VIOLATION_CNT=343'
p680
I1528
sS'SAMPLE_CNT_AIR=1024'
p681
I425
sS'SAMPLE_CNT_DUSTSPOT=71'
p682
I509
sS'SAMPLE_CNT_DUSTSPOT=70'
p683
I508
sS'NO_EMPLOYEES=25'
p684
I225
sS'NO_EMPLOYEES=24'
p685
I224
sS'NO_EMPLOYEES=27'
p686
I227
sS'NO_EMPLOYEES=26'
p687
I226
sS'NO_EMPLOYEES=21'
p688
I221
sS'NO_EMPLOYEES=20'
p689
I220
sS'NO_EMPLOYEES=22'
p690
I223
sS'NO_EMPLOYEES=29'
p691
I230
sS'NO_EMPLOYEES=28'
p692
I229
sS'VIOLATOR_VIOLATION_CNT=87'
p693
I1610
sS'VIOLATOR_VIOLATION_CNT=85'
p694
I1608
sS'SAMPLE_CNT_NOISE=18'
p695
I592
sS'NO_EMPLOYEES=164'
p696
I215
sS'SAMPLE_CNT_NOISE=16'
p697
I589
sS'SAMPLE_CNT_NOISE=14'
p698
I586
sS'SAMPLE_CNT_DUSTSURVEY=1062'
p699
I515
sS'ACTIVITY=NON-INJURY ACCIDENT INVESTIGATION'
p700
I33
sS'SAMPLE_CNT_NOISE=24'
p701
I595
sS'SAMPLE_CNT_AIR=150'
p702
I438
sS'SAMPLE_CNT_AIR=154'
p703
I439
sS'SAMPLE_CNT_RESPDUST=189'
p704
I677
sS'SAMPLE_CNT_AIR=712'
p705
I484
sS'PROGRAM_AREA=Coal--Spot Inspection'
p706
I394
sS'AVG_MINE_HEIGHT=48'
p707
I86
sS'AVG_MINE_HEIGHT=46'
p708
I85
sS'AVG_MINE_HEIGHT=45'
p709
I84
sS'AVG_MINE_HEIGHT=44'
p710
I83
sS'AVG_MINE_HEIGHT=43'
p711
I82
sS'AVG_MINE_HEIGHT=42'
p712
I81
sS'AVG_MINE_HEIGHT=40'
p713
I80
sS'VIOLATOR_INSPECTION_DAY_CNT=8'
p714
I1417
sS'VIOLATOR_INSPECTION_DAY_CNT=9'
p715
I1426
sS'VIOLATOR_INSPECTION_DAY_CNT=6'
p716
I1397
sS'VIOLATOR_INSPECTION_DAY_CNT=7'
p717
I1407
sS'VIOLATOR_INSPECTION_DAY_CNT=4'
p718
I1317
sS'VIOLATOR_INSPECTION_DAY_CNT=5'
p719
I1388
sS'VIOLATOR_INSPECTION_DAY_CNT=2'
p720
I1270
sS'VIOLATOR_INSPECTION_DAY_CNT=3'
p721
I1293
sS'VIOLATOR_INSPECTION_DAY_CNT=0'
p722
I1226
sS'VIOLATOR_INSPECTION_DAY_CNT=1'
p723
I1227
sS'SAMPLE_CNT_RESPDUST=165'
p724
I668
sS'SAMPLE_CNT_RESPDUST=160'
p725
I666
sS'SAMPLE_CNT_RESPDUST=162'
p726
I667
sS'SAMPLE_CNT_RESPDUST=168'
p727
I670
sS'PROGRAM_AREA=Coal--ELECTRICAL INSPECTION'
p728
I363
sS'VIOLATOR_INSPECTION_DAY_CNT=485'
p729
I1386
sS'SAMPLE_CNT_DUSTSURVEY=4895'
p730
I558
sS'SAMPLE_CNT_AIR=48'
p731
I469
sS'PROGRAM_AREA=M/NM--Regular Safety and Health Inspection'
p732
I415
sS'SAMPLE_CNT_DUSTSURVEY=31'
p733
I547
sS'SAMPLE_CNT_DUSTSURVEY=30'
p734
I546
sS'SAMPLE_CNT_DUSTSURVEY=32'
p735
I548
sS'SAMPLE_CNT_DUSTSURVEY=36'
p736
I551
sS'TOTAL_ON_SITE_HOURS=202'
p737
I1048
sS'TOTAL_ON_SITE_HOURS=200'
p738
I1047
sS'TOTAL_INSP_HOURS=320'
p739
I844
sS'TOTAL_ON_SITE_HOURS=206'
p740
I1050
sS'TOTAL_ON_SITE_HOURS=204'
p741
I1049
sS'TOTAL_ON_SITE_HOURS=116'
p742
I981
sS'TOTAL_ON_SITE_HOURS=117'
p743
I982
sS'TOTAL_ON_SITE_HOURS=114'
p744
I979
sS'TOTAL_ON_SITE_HOURS=115'
p745
I980
sS'TOTAL_ON_SITE_HOURS=112'
p746
I977
sS'TOTAL_ON_SITE_HOURS=113'
p747
I978
sS'TOTAL_ON_SITE_HOURS=110'
p748
I975
sS'TOTAL_ON_SITE_HOURS=111'
p749
I976
sS'VIOLATOR_INSPECTION_DAY_CNT=471'
p750
I1374
sS'VIOLATOR_INSPECTION_DAY_CNT=470'
p751
I1373
sS'VIOLATOR_INSPECTION_DAY_CNT=473'
p752
I1375
sS'VIOLATOR_INSPECTION_DAY_CNT=475'
p753
I1376
sS'TOTAL_ON_SITE_HOURS=118'
p754
I983
sS'VIOLATOR_INSPECTION_DAY_CNT=476'
p755
I1377
sS'SAMPLE_CNT_NOISE=105'
p756
I580
sS'TOTAL_ON_SITE_HOURS=378'
p757
I1093
sS'PART48_TRAINING=N'
p758
I249
sS'TOTAL_INSP_HOURS=254'
p759
I829
sS'TOTAL_INSP_HOURS=253'
p760
I828
sS'ACTIVITY=Non-Injury Accident Investigation'
p761
I37
sS'TOTAL_INSP_HOURS=250'
p762
I827
sS'VIOLATOR_INSPECTION_DAY_CNT=304'
p763
I1295
sS'PART48_TRAINING=Y'
p764
I250
sS'ACTIVITY=Compliance Follow-up Inspection'
p765
I19
sS'SAMPLE_CNT_NOISE=135'
p766
I585
sS'SAMPLE_CNT_NOISE=130'
p767
I584
sS'SAMPLE_CNT_NOISE=483'
p768
I617
sS'VIOLATOR_VIOLATION_CNT=47'
p769
I1576
sS'VIOLATOR_VIOLATION_CNT=44'
p770
I1573
sS'TOTAL_ON_SITE_HOURS=83'
p771
I1168
sS'TOTAL_ON_SITE_HOURS=82'
p772
I1167
sS'TOTAL_ON_SITE_HOURS=81'
p773
I1166
sS'TOTAL_ON_SITE_HOURS=80'
p774
I1165
sS'TOTAL_ON_SITE_HOURS=87'
p775
I1173
sS'TOTAL_ON_SITE_HOURS=86'
p776
I1172
sS'TOTAL_ON_SITE_HOURS=85'
p777
I1171
sS'TOTAL_ON_SITE_HOURS=84'
p778
I1170
sS'TOTAL_INSP_HOURS=27'
p779
I833
sS'TOTAL_INSP_HOURS=26'
p780
I830
sS'TOTAL_ON_SITE_HOURS=89'
p781
I1175
sS'TOTAL_ON_SITE_HOURS=88'
p782
I1174
sS'TOTAL_INSP_HOURS=23'
p783
I823
sS'TOTAL_INSP_HOURS=22'
p784
I820
sS'TOTAL_INSP_HOURS=21'
p785
I817
sS'TOTAL_INSP_HOURS=20'
p786
I816
sS'NBR_INSPECTORS=0'
p787
I162
sS'NBR_INSPECTORS=1'
p788
I163
sS'PROGRAM_AREA=M/NM--ATTEMPTED INSPECTION (DENIAL OF ENTRY)'
p789
I404
sS'NBR_INSPECTORS=3'
p790
I171
sS'NBR_INSPECTORS=4'
p791
I172
sS'NBR_INSPECTORS=5'
p792
I173
sS'NBR_INSPECTORS=6'
p793
I174
sS'NBR_INSPECTORS=7'
p794
I175
sS'NBR_INSPECTORS=8'
p795
I176
sS'NBR_INSPECTORS=9'
p796
I177
sS'TOTAL_INSP_HOURS=475'
p797
I875
sS'SAMPLE_CNT_AIR=1121'
p798
I429
sS'ACTIVITY=ELECTRICAL INVESTIGATION'
p799
I21
sS'SAMPLE_CNT_DUSTSURVEY=3224'
p800
I549
sS'SAMPLE_CNT_RESPDUST=1485'
p801
I660
sS'LIKELIHOOD=Unlikely'
p802
I148
sS'PRIMARY_SIC=Misc. Metal Ore NEC'
p803
I337
sS'SAMPLE_CNT_AIR=32'
p804
I458
sS'ACTIVITY=ROOF CONTROL TECHNICAL INVESTIGTION'
p805
I50
sS'SAMPLE_CNT_AIR=36'
p806
I463
sS'SAMPLE_CNT_AIR=39'
p807
I464
sS'TOTAL_ON_SITE_HOURS=96'
p808
I1183
sS'VIOLATOR_VIOLATION_CNT=326'
p809
I1519
sS'TOTAL_INSP_HOURS=59'
p810
I890
sS'VIOLATOR_VIOLATION_CNT=59'
p811
I1588
sS'VIOLATOR_VIOLATION_CNT=58'
p812
I1587
sS'PRIMARY_SIC=Crushed, Broken Stone NEC'
p813
I317
sS'VIOLATOR_VIOLATION_CNT=55'
p814
I1584
sS'VIOLATOR_VIOLATION_CNT=54'
p815
I1583
sS'VIOLATOR_VIOLATION_CNT=57'
p816
I1586
sS'VIOLATOR_VIOLATION_CNT=56'
p817
I1585
sS'PRIMARY_CANVASS=Stone'
p818
I298
sS'VIOLATOR_VIOLATION_CNT=53'
p819
I1582
sS'VIOLATOR_VIOLATION_CNT=52'
p820
I1581
sS'VIOLATOR_INSPECTION_DAY_CNT=131'
p821
I1250
sS'PROGRAM_AREA=M/NM--VERBAL HAZARD COMPLAINT'
p822
I418
sS'SAMPLE_CNT_AIR=852'
p823
I493
sS'VIOLATOR_VIOLATION_CNT=358'
p824
I1536
sS'VIOLATOR_VIOLATION_CNT=352'
p825
I1533
sS'VIOLATOR_VIOLATION_CNT=350'
p826
I1532
sS'VIOLATOR_VIOLATION_CNT=357'
p827
I1535
sS'VIOLATOR_VIOLATION_CNT=356'
p828
I1534
sS'TOTAL_INSP_HOURS=56'
p829
I887
sS'TOTAL_INSP_HOURS=57'
p830
I888
sS'NEGLIGENCE=NoNegligence'
p831
I182
sS'PRIMARY_SIC=Coal (Anthracite)'
p832
I306
sS'PROD_SHIFTS_PER_DAY=8'
p833
I354
sS'NO_EMPLOYEES=30'
p834
I232
sS'NO_EMPLOYEES=36'
p835
I233
sS'NO_EMPLOYEES=37'
p836
I234
sS'PROD_SHIFTS_PER_DAY=0'
p837
I348
sS'PROD_SHIFTS_PER_DAY=1'
p838
I349
sS'NO_EMPLOYEES=38'
p839
I235
sS'PROD_SHIFTS_PER_DAY=3'
p840
I351
sS'PROD_SHIFTS_PER_DAY=5'
p841
I352
sS'PROD_SHIFTS_PER_DAY=6'
p842
I353
sS'PROGRAM_AREA=M/NM--REGULAR INSPECTION'
p843
I414
sS'SAMPLE_CNT_AIR=140'
p844
I434
sS'TOTAL_ON_SITE_HRS_SPVR_TRAINEE=0'
p845
I1188
sS'LIKELIHOOD=Highly'
p846
I144
sS'VIOLATOR_VIOLATION_CNT=228'
p847
I1486
sS'SAMPLE_CNT_AIR=708'
p848
I483
sS'PROGRAM_AREA=M/NM--Mine Idle Activity'
p849
I409
sS'PROGRAM_AREA=M/NM--MISCELLANEOUS INSPECTION/INVESTIGATION'
p850
I408
sS'SAMPLE_CNT_RESPDUST=150'
p851
I663
sS'PROGRAM_AREA=Coal--Electrical Technical Investigation'
p852
I366
sS'SAMPLE_CNT_RESPDUST=155'
p853
I664
sS'SAMPLE_CNT_AIR=0'
p854
I422
sS'PROGRAM_AREA=Coal--Part 50 Audit'
p855
I380
sS'SAMPLE_CNT_AIR=3'
p856
I456
sS'SAMPLE_CNT_AIR=4'
p857
I465
sS'SAMPLE_CNT_AIR=7'
p858
I482
sS'TOTAL_INSP_HRS_SPVR_TRAINEE=2'
p859
I945
sS'TOTAL_INSP_HRS_SPVR_TRAINEE=3'
p860
I951
sS'TOTAL_INSP_HRS_SPVR_TRAINEE=0'
p861
I933
sS'TOTAL_INSP_HRS_SPVR_TRAINEE=1'
p862
I934
sS'TOTAL_INSP_HRS_SPVR_TRAINEE=6'
p863
I957
sS'TOTAL_INSP_HRS_SPVR_TRAINEE=7'
p864
I958
sS'TOTAL_INSP_HRS_SPVR_TRAINEE=4'
p865
I954
sS'TOTAL_INSP_HRS_SPVR_TRAINEE=5'
p866
I956
sS'TOTAL_INSP_HRS_SPVR_TRAINEE=8'
p867
I959
sS'TOTAL_INSP_HRS_SPVR_TRAINEE=9'
p868
I960
sS'VIOLATOR_INSPECTION_DAY_CNT=75'
p869
I1413
sS'SAMPLE_CNT_AIR=451'
p870
I467
sS'SAMPLE_CNT_DUSTSURVEY=48'
p871
I556
sS'PROGRAM_AREA=Coal--CODE-A-PHONE SPOT INSPECTION'
p872
I362
sS'TOTAL_ON_SITE_HOURS=566'
p873
I1132
sS'SAMPLE_CNT_DUSTSURVEY=46'
p874
I554
sS'SAMPLE_CNT_DUSTSURVEY=47'
p875
I555
sS'SAMPLE_CNT_DUSTSURVEY=40'
p876
I552
sS'SAMPLE_CNT_DUSTSURVEY=42'
p877
I553
sS'VIOLATOR_INSPECTION_DAY_CNT=263'
p878
I1287
sS'TOTAL_ON_SITE_HOURS=768'
p879
I1160
sS'TOTAL_ON_SITE_HOURS=163'
p880
I1022
sS'VIOLATOR_INSPECTION_DAY_CNT=467'
p881
I1369
sS'TOTAL_ON_SITE_HOURS=161'
p882
I1021
sS'TOTAL_ON_SITE_HOURS=160'
p883
I1020
sS'VIOLATOR_INSPECTION_DAY_CNT=462'
p884
I1364
sS'TOTAL_ON_SITE_HOURS=166'
p885
I1024
sS'VIOLATOR_INSPECTION_DAY_CNT=460'
p886
I1363
sS'TOTAL_ON_SITE_HOURS=164'
p887
I1023
sS'TOTAL_ON_SITE_HOURS=169'
p888
I1027
sS'TOTAL_ON_SITE_HOURS=168'
p889
I1026
sS'VIOLATOR_INSPECTION_DAY_CNT=468'
p890
I1370
sS'VIOLATOR_INSPECTION_DAY_CNT=469'
p891
I1371
sS'VIOLATOR_INSPECTION_DAY_CNT=18'
p892
I1264
sS'TOTAL_INSP_HOURS=260'
p893
I831
sS'TOTAL_INSP_HOURS=267'
p894
I832
sS'VIOLATOR_INSPECTION_DAY_CNT=319'
p895
I1298
sS'VIOLATOR_INSPECTION_DAY_CNT=317'
p896
I1297
sS'SAMPLE_CNT_RESPDUST=2071'
p897
I680
sS'SAMPLE_CNT_NOISE=120'
p898
I581
sS'SAMPLE_CNT_NOISE=125'
p899
I583
sS'SAMPLE_CNT_RESPDUST=9'
p900
I739
sS'TOTAL_ON_SITE_HOURS=415'
p901
I1103
sS'TOTAL_ON_SITE_HOURS=414'
p902
I1102
sS'SAMPLE_CNT_RESPDUST=0'
p903
I637
sS'SAMPLE_CNT_RESPDUST=3'
p904
I698
sS'SAMPLE_CNT_NOISE=490'
p905
I618
sS'TOTAL_ON_SITE_HOURS=235'
p906
I1060
sS'ACTIVITY=RESP DUST TECHNICAL INVESTIGATION'
p907
I46
sS'VIOLATOR_INSPECTION_DAY_CNT=70'
p908
I1408
sS'TOTAL_INSP_HOURS=38'
p909
I857
sS'PRIMARY_OR_MILL=Primary'
p910
I301
sS'PROGRAM_AREA=Coal--Non-Injury Accident Investigation'
p911
I376
sS'TOTAL_ON_SITE_HOURS=79'
p912
I1163
sS'TOTAL_INSP_HOURS=34'
p913
I850
sS'TOTAL_INSP_HOURS=35'
p914
I853
sS'TOTAL_INSP_HOURS=36'
p915
I854
sS'TOTAL_INSP_HOURS=37'
p916
I855
sS'TOTAL_INSP_HOURS=30'
p917
I841
sS'TOTAL_INSP_HOURS=31'
p918
I842
sS'TOTAL_INSP_HOURS=32'
p919
I843
sS'TOTAL_INSP_HOURS=33'
p920
I845
sS'TOTAL_ON_SITE_HOURS=176'
p921
I1034
sS'SAMPLE_CNT_RESPDUST=1254'
p922
I648
sS'SAMPLE_CNT_RESPDUST=88'
p923
I738
sS'SAMPLE_CNT_RESPDUST=80'
p924
I734
sS'SAMPLE_CNT_RESPDUST=84'
p925
I736
sS'SAMPLE_CNT_AIR=45'
p926
I466
sS'VIOLATOR_VIOLATION_CNT=8'
p927
I1604
sS'PORTABLE_FIPS_ST_CD=50'
p928
I286
sS'PORTABLE_FIPS_ST_CD=51'
p929
I287
sS'PORTABLE_FIPS_ST_CD=53'
p930
I288
sS'PORTABLE_FIPS_ST_CD=54'
p931
I289
sS'PORTABLE_FIPS_ST_CD=55'
p932
I290
sS'PORTABLE_FIPS_ST_CD=56'
p933
I291
sS'PROGRAM_AREA=Coal--103(I) SPOT (5-DAY) INSPECTION'
p934
I359
sS'VIOLATOR_VIOLATION_CNT=48'
p935
I1577
sS'VIOLATOR_VIOLATION_CNT=49'
p936
I1578
sS'VIOLATOR_VIOLATION_CNT=46'
p937
I1575
sS'SHAFT_SLOPE_SINK=2'
p938
I752
sS'SHAFT_SLOPE_SINK=1'
p939
I751
sS'SHAFT_SLOPE_SINK=0'
p940
I750
sS'VIOLATOR_VIOLATION_CNT=42'
p941
I1570
sS'VIOLATOR_VIOLATION_CNT=43'
p942
I1572
sS'VIOLATOR_VIOLATION_CNT=40'
p943
I1563
sS'VIOLATOR_VIOLATION_CNT=41'
p944
I1569
sS'SAMPLE_CNT_RESPDUST=1100'
p945
I642
sS'VIOLATOR_VIOLATION_CNT=328'
p946
I1521
sS'PRIMARY_OR_MILL='
p947
I299
sS'VIOLATOR_VIOLATION_CNT=327'
p948
I1520
sS'VIOLATOR_VIOLATION_CNT=324'
p949
I1518
sS'VIOLATOR_VIOLATION_CNT=323'
p950
I1517
sS'VIOLATOR_VIOLATION_CNT=321'
p951
I1516
sS'PRIMARY_SIC=Crushed, Broken Traprock'
p952
I318
sS'SAMPLE_CNT_DUSTSURVEY=272'
p953
I543
sS'TOTAL_ON_SITE_HRS_SPVR_TRAINEE=1'
p954
I1189
sS'TOTAL_ON_SITE_HRS_SPVR_TRAINEE=2'
p955
I1200
sS'TOTAL_ON_SITE_HRS_SPVR_TRAINEE=3'
p956
I1207
sS'TOTAL_ON_SITE_HRS_SPVR_TRAINEE=4'
p957
I1211
sS'TOTAL_ON_SITE_HRS_SPVR_TRAINEE=5'
p958
I1214
sS'TOTAL_ON_SITE_HRS_SPVR_TRAINEE=6'
p959
I1218
sS'TOTAL_ON_SITE_HRS_SPVR_TRAINEE=7'
p960
I1220
sS'TOTAL_ON_SITE_HRS_SPVR_TRAINEE=8'
p961
I1221
sS'TOTAL_ON_SITE_HRS_SPVR_TRAINEE=9'
p962
I1222
sS'PROGRAM_AREA=Coal--Other Technical Compliance Investigations'
p963
I378
sS'PROGRAM_AREA=Coal--HAULAGE TECHNICAL INSPECTION'
p964
I369
sS'ACTIVITY=COMPLIANCE FOLLOW-UP INSPECTION'
p965
I18
sS'SAMPLE_CNT_DUSTSPOT=55'
p966
I505
sS'SAMPLE_CNT_RESPDUST=360'
p967
I707
sS'CONTESTED_IND=Y'
p968
I101
sS'PRIMARY_CANVASS=SandAndGravel'
p969
I297
sS'MINE_TYPE=Underground'
p970
I157
sS'NO_EMPLOYEES=50'
p971
I241
sS'CONTESTED_IND=N'
p972
I100
sS'SAMPLE_CNT_RESPDUST=144'
p973
I658
sS'SAMPLE_CNT_RESPDUST=140'
p974
I657
sS'AVG_MINE_HEIGHT=84'
p975
I94
sS'SAMPLE_CNT_AIR=510'
p976
I472
sS'SAMPLE_CNT_RESPDUST=782'
p977
I733
sS'SAMPLE_CNT_DUSTSURVEY=58'
p978
I561
sS'PROGRAM_AREA=Coal--103(G)(1) SPOT INSPECTION'
p979
I356
sS'SAMPLE_CNT_DUSTSURVEY=52'
p980
I560
sS'SAMPLE_CNT_DUSTSURVEY=50'
p981
I559
sS'VIOLATOR_INSPECTION_DAY_CNT=412'
p982
I1322
sS'TOTAL_ON_SITE_HOURS=172'
p983
I1030
sS'TOTAL_ON_SITE_HOURS=173'
p984
I1031
sS'TOTAL_ON_SITE_HOURS=174'
p985
I1032
sS'TOTAL_ON_SITE_HOURS=175'
p986
I1033
sS'ACTIVITY=Spot Inspection'
p987
I58
sS'VIOLATOR_INSPECTION_DAY_CNT=414'
p988
I1323
sS'TOTAL_ON_SITE_HOURS=178'
p989
I1035
sS'VIOLATOR_INSPECTION_DAY_CNT=419'
p990
I1325
sS'BLDG_CONSTR_SITES=0'
p991
I95
sS'BLDG_CONSTR_SITES=1'
p992
I96
sS'SAMPLE_CNT_AIR=192'
p993
I443
sS'BLDG_CONSTR_SITES=3'
p994
I97
sS'TOTAL_ON_SITE_HOURS=318'
p995
I1080
sS'VIOLATOR_INSPECTION_DAY_CNT=38'
p996
I1309
sS'VIOLATOR_INSPECTION_DAY_CNT=39'
p997
I1312
sS'VIOLATOR_INSPECTION_DAY_CNT=36'
p998
I1307
sS'VIOLATOR_INSPECTION_DAY_CNT=34'
p999
I1305
sS'VIOLATOR_INSPECTION_DAY_CNT=35'
p1000
I1306
sS'VIOLATOR_INSPECTION_DAY_CNT=32'
p1001
I1299
sS'VIOLATOR_INSPECTION_DAY_CNT=33'
p1002
I1303
sS'VIOLATOR_INSPECTION_DAY_CNT=30'
p1003
I1294
sS'VIOLATOR_INSPECTION_DAY_CNT=31'
p1004
I1296
sS'VIOLATOR_INSPECTION_DAY_CNT=328'
p1005
I1302
sS'PRIMARY_SIC=Lead-Zinc Ore'
p1006
I334
sS'VIOLATOR_INSPECTION_DAY_CNT=320'
p1007
I1300
sS'VIOLATOR_INSPECTION_DAY_CNT=324'
p1008
I1301
sS'TOTAL_INSP_HOURS=186'
p1009
I811
sS'VIOLATOR_INSPECTION_DAY_CNT=250'
p1010
I1285
sS'TOTAL_ON_SITE_HOURS=406'
p1011
I1100
sS'TOTAL_ON_SITE_HOURS=401'
p1012
I1099
sS'SAMPLE_CNT_NOISE=460'
p1013
I616
sS'TOTAL_ON_SITE_HOURS=69'
p1014
I1150
sS'TOTAL_ON_SITE_HOURS=68'
p1015
I1149
sS'TOTAL_ON_SITE_HOURS=65'
p1016
I1144
sS'TOTAL_ON_SITE_HOURS=64'
p1017
I1143
sS'TOTAL_ON_SITE_HOURS=67'
p1018
I1146
sS'TOTAL_ON_SITE_HOURS=66'
p1019
I1145
sS'TOTAL_ON_SITE_HOURS=61'
p1020
I1139
sS'TOTAL_ON_SITE_HOURS=60'
p1021
I1137
sS'TOTAL_ON_SITE_HOURS=63'
p1022
I1141
sS'TOTAL_ON_SITE_HOURS=62'
p1023
I1140
sS'MULTIPLE_PITS=Y'
p1024
I161
sS'PRIMARY_SIC=Gemstones'
p1025
I327
sS'NEGLIGENCE='
p1026
I178
sS'SAMPLE_CNT_NOISE=0'
p1027
I575
sS'SAMPLE_CNT_NOISE=205'
p1028
I594
sS'MAINT_SHIFTS_PER_DAY=1'
p1029
I150
sS'MAINT_SHIFTS_PER_DAY=0'
p1030
I149
sS'MAINT_SHIFTS_PER_DAY=2'
p1031
I151
sS'MAINT_SHIFTS_PER_DAY=8'
p1032
I152
sS'SAMPLE_CNT_AIR=1452'
p1033
I435
sS'TOTAL_INSP_HOURS=452'
p1034
I871
sS'PORTABLE_FIPS_ST_CD=46'
p1035
I283
sS'PORTABLE_FIPS_ST_CD=42'
p1036
I282
sS'PORTABLE_FIPS_ST_CD=41'
p1037
I281
sS'PORTABLE_FIPS_ST_CD=40'
p1038
I280
sS'PORTABLE_FIPS_ST_CD=49'
p1039
I285
sS'PORTABLE_FIPS_ST_CD=48'
p1040
I284
sS'SAMPLE_CNT_RESPDUST=98'
p1041
I745
sS'SAMPLE_CNT_RESPDUST=91'
p1042
I742
sS'SAMPLE_CNT_RESPDUST=90'
p1043
I740
sS'SAMPLE_CNT_RESPDUST=95'
p1044
I743
sS'SAMPLE_CNT_RESPDUST=96'
p1045
I744
sS'SAMPLE_CNT_AIR=56'
p1046
I475
sS'SAMPLE_CNT_AIR=54'
p1047
I474
sS'SAMPLE_CNT_AIR=52'
p1048
I473
sS'SAMPLE_CNT_AIR=51'
p1049
I471
sS'VIOLATOR_VIOLATION_CNT=72'
p1050
I1599
sS'VIOLATOR_VIOLATION_CNT=70'
p1051
I1598
sS'VIOLATOR_VIOLATION_CNT=76'
p1052
I1601
sS'VIOLATOR_VIOLATION_CNT=74'
p1053
I1600
sS'VIOLATOR_VIOLATION_CNT=79'
p1054
I1603
sS'VIOLATOR_VIOLATION_CNT=78'
p1055
I1602
sS'PRIMARY_CANVASS=Nonmetal'
p1056
I296
sS'PROGRAM_AREA=Coal--ELECTRICAL INVESTIGATION'
p1057
I364
sS'SAMPLE_CNT_AIR=872'
p1058
I494
sS'VIOLATOR_VIOLATION_CNT=334'
p1059
I1525
sS'VIOLATOR_VIOLATION_CNT=333'
p1060
I1524
sS'VIOLATOR_VIOLATION_CNT=332'
p1061
I1523
sS'ACTIVITY=Fatal Accident Investigation'
p1062
I25
sS'PROGRAM_AREA=Coal--103(i) Spot Inspections'
p1063
I360
sS'PROGRAM_AREA=Coal--SPOT INSPECTION'
p1064
I392
sS'SAMPLE_CNT_RESPDUST=4984'
p1065
I717
sS'PROGRAM_AREA=M/NM--SPECIAL ENFORCEMENT 3'
p1066
I416
sS'SAMPLE_CNT_RESPDUST=224'
p1067
I684
sS'PROGRAM_AREA=Coal--VENTILATION TECHNICAL INVESTIGATION'
p1068
I396
sS'SAMPLE_CNT_DUSTSPOT=22'
p1069
I502
sS'SAMPLE_CNT_DUSTSPOT=20'
p1070
I501
sS'VIOLATOR_VIOLATION_CNT=240'
p1071
I1489
sS'NO_EMPLOYEES=0'
p1072
I206
sS'NO_EMPLOYEES=1'
p1073
I207
sS'VIOLATOR_VIOLATION_CNT=90'
p1074
I1613
sS'VIOLATOR_VIOLATION_CNT=93'
p1075
I1614
sS'VIOLATOR_VIOLATION_CNT=95'
p1076
I1616
sS'VIOLATOR_VIOLATION_CNT=94'
p1077
I1615
sS'TOTAL_ON_SITE_HOURS=676'
p1078
I1147
sS'SAMPLE_CNT_AIR=297'
p1079
I455
sS'SAMPLE_CNT_RESPDUST=138'
p1080
I655
sS'SAMPLE_CNT_RESPDUST=132'
p1081
I653
sS'SAMPLE_CNT_RESPDUST=130'
p1082
I652
sS'SAMPLE_CNT_RESPDUST=135'
p1083
I654
sS'PRIMARY_SIC=Silver Ore'
p1084
I347
sS'NO_EMPLOYEES=8'
p1085
I244
sS'VIOLATOR_INSPECTION_DAY_CNT=40'
p1086
I1318
sS'ACTIVITY=103(I) SPOT (5-DAY) INSPECTION'
p1087
I11
sS'PROGRAM_AREA=Coal--FREE SILICA TECHNICAL INVESTIGATION'
p1088
I367
sS'SAMPLE_CNT_DUSTSURVEY=62'
p1089
I563
sS'SAMPLE_CNT_DUSTSURVEY=60'
p1090
I562
sS'PRIMARY_SIC=Dimension Quartzite'
p1091
I321
sS'SAMPLE_CNT_DUSTSURVEY=64'
p1092
I564
sS'TOTAL_ON_SITE_HOURS=171'
p1093
I1029
sS'SAMPLE_CNT_AIR=470'
p1094
I468
sS'VIOLATOR_INSPECTION_DAY_CNT=410'
p1095
I1321
sS'VIOLATOR_INSPECTION_DAY_CNT=416'
p1096
I1324
sS'TOTAL_ON_SITE_HOURS=149'
p1097
I1011
sS'TOTAL_ON_SITE_HOURS=148'
p1098
I1010
sS'VIOLATOR_INSPECTION_DAY_CNT=408'
p1099
I1319
sS'TOTAL_ON_SITE_HOURS=144'
p1100
I1008
sS'TOTAL_ON_SITE_HOURS=146'
p1101
I1009
sS'TOTAL_ON_SITE_HOURS=141'
p1102
I1005
sS'TOTAL_ON_SITE_HOURS=140'
p1103
I1004
sS'TOTAL_ON_SITE_HOURS=143'
p1104
I1007
sS'TOTAL_ON_SITE_HOURS=142'
p1105
I1006
sS'SAMPLE_CNT_AIR=180'
p1106
I442
sS'PORTABLE_FIPS_ST_CD=21'
p1107
I266
sS'VIOLATOR_INSPECTION_DAY_CNT=29'
p1108
I1290
sS'VIOLATOR_INSPECTION_DAY_CNT=28'
p1109
I1289
sS'NBR_INSPECTORS=13'
p1110
I167
sS'VIOLATOR_INSPECTION_DAY_CNT=25'
p1111
I1284
sS'VIOLATOR_INSPECTION_DAY_CNT=24'
p1112
I1281
sS'VIOLATOR_INSPECTION_DAY_CNT=27'
p1113
I1288
sS'VIOLATOR_INSPECTION_DAY_CNT=26'
p1114
I1286
sS'VIOLATOR_INSPECTION_DAY_CNT=21'
p1115
I1273
sS'VIOLATOR_INSPECTION_DAY_CNT=20'
p1116
I1271
sS'VIOLATOR_INSPECTION_DAY_CNT=23'
p1117
I1279
sS'VIOLATOR_INSPECTION_DAY_CNT=22'
p1118
I1276
sS'ACTIVITY=RESPIRABLE DUST SPOT INSPECTION'
p1119
I47
sS'TOTAL_ON_SITE_HOURS=321'
p1120
I1082
sS'NBR_INSPECTORS=16'
p1121
I169
sS'VIOLATOR_INSPECTION_DAY_CNT=339'
p1122
I1304
sS'VIOLATOR_INSPECTION_DAY_CNT=242'
p1123
I1283
sS'VIOLATOR_INSPECTION_DAY_CNT=241'
p1124
I1282
sS'SURF_FACILITY_MINE=Y'
p1125
I759
sS'TOTAL_ON_SITE_HOURS=430'
p1126
I1106
sS'TOTAL_ON_SITE_HOURS=434'
p1127
I1107
sS'TOTAL_ON_SITE_HOURS=436'
p1128
I1108
sS'PRIMARY_SIC=Dimension Stone NEC'
p1129
I324
sS'PRIMARY_SIC=Crushed, Broken Granite'
p1130
I312
sS'TOTAL_ON_SITE_HOURS=58'
p1131
I1134
sS'TOTAL_ON_SITE_HOURS=59'
p1132
I1135
sS'NO_AFFECTED=30'
p1133
I197
sS'TOTAL_INSP_HOURS=197'
p1134
I814
sS'TOTAL_ON_SITE_HOURS=50'
p1135
I1122
sS'TOTAL_ON_SITE_HOURS=51'
p1136
I1123
sS'TOTAL_ON_SITE_HOURS=52'
p1137
I1124
sS'TOTAL_ON_SITE_HOURS=53'
p1138
I1126
sS'SAMPLE_CNT_DUSTSURVEY=84'
p1139
I569
sS'TOTAL_ON_SITE_HOURS=55'
p1140
I1129
sS'TOTAL_ON_SITE_HOURS=56'
p1141
I1130
sS'TOTAL_ON_SITE_HOURS=57'
p1142
I1133
sS'TOTAL_INSP_HOURS=16'
p1143
I804
sS'TOTAL_INSP_HOURS=17'
p1144
I807
sS'TOTAL_INSP_HOURS=14'
p1145
I792
sS'TOTAL_INSP_HOURS=15'
p1146
I801
sS'TOTAL_INSP_HOURS=12'
p1147
I782
sS'TOTAL_INSP_HOURS=13'
p1148
I789
sS'TOTAL_INSP_HOURS=10'
p1149
I764
sS'TOTAL_INSP_HOURS=11'
p1150
I774
sS'ACTIVITY=103(I) SPOT (10-DAY) INSPECTION'
p1151
I9
sS'TOTAL_INSP_HOURS=18'
p1152
I809
sS'TOTAL_INSP_HOURS=19'
p1153
I812
sS'TOTAL_INSP_HOURS=378'
p1154
I856
sS'MINE_TYPE=Facility'
p1155
I155
sS'EXPLOSIVE_STORAGE=N'
p1156
I114
sS'SAMPLE_CNT_RESPDUST=1239'
p1157
I647
sS'EXPLOSIVE_STORAGE=Y'
p1158
I115
sS'PORTABLE_FIPS_ST_CD=32'
p1159
I274
sS'PORTABLE_FIPS_ST_CD=33'
p1160
I275
sS'PORTABLE_FIPS_ST_CD=30'
p1161
I272
sS'PORTABLE_FIPS_ST_CD=31'
p1162
I273
sS'PORTABLE_FIPS_ST_CD=36'
p1163
I278
sS'PORTABLE_FIPS_ST_CD=34'
p1164
I276
sS'PORTABLE_FIPS_ST_CD=35'
p1165
I277
sS'MAJOR_CONSTR=N'
p1166
I153
sS'PORTABLE_FIPS_ST_CD=38'
p1167
I279
sS'CO_RECORDS=Y'
p1168
I103
sS'PROGRAM_AREA=Coal--WATER/SLURRY TECHNICAL INSPECTION'
p1169
I400
sS'CO_RECORDS=N'
p1170
I102
sS'MAJOR_CONSTR=Y'
p1171
I154
sS'PROGRAM_AREA=M/NM--PART 50 AUDIT'
p1172
I413
sS'IMPOUND_CONSTR=0'
p1173
I137
sS'SAMPLE_CNT_AIR=1200'
p1174
I431
sS'PROGRAM_AREA=Coal--103 (g) Written Notification Hazard Complaint Inspecti'
p1175
I355
sS'SAMPLE_CNT_AIR=63'
p1176
I479
sS'SAMPLE_CNT_AIR=60'
p1177
I478
sS'SAMPLE_CNT_AIR=65'
p1178
I480
sS'TOTAL_ON_SITE_HRS_SPVR_TRAINEE=12'
p1179
I1192
sS'TOTAL_ON_SITE_HRS_SPVR_TRAINEE=13'
p1180
I1193
sS'TOTAL_ON_SITE_HRS_SPVR_TRAINEE=10'
p1181
I1190
sS'TOTAL_ON_SITE_HRS_SPVR_TRAINEE=11'
p1182
I1191
sS'TOTAL_ON_SITE_HRS_SPVR_TRAINEE=16'
p1183
I1196
sS'TOTAL_ON_SITE_HRS_SPVR_TRAINEE=17'
p1184
I1197
sS'TOTAL_ON_SITE_HRS_SPVR_TRAINEE=14'
p1185
I1194
sS'TOTAL_ON_SITE_HRS_SPVR_TRAINEE=15'
p1186
I1195
sS'TOTAL_ON_SITE_HRS_SPVR_TRAINEE=18'
p1187
I1198
sS'TOTAL_ON_SITE_HRS_SPVR_TRAINEE=19'
p1188
I1199
sS'VIOLATOR_INSPECTION_DAY_CNT=464'
p1189
I1366
sS'VIOLATOR_VIOLATION_CNT=64'
p1190
I1593
sS'SAMPLE_CNT_AIR=80'
p1191
I489
sS'VIOLATOR_VIOLATION_CNT=66'
p1192
I1594
sS'VIOLATOR_VIOLATION_CNT=60'
p1193
I1590
sS'TOTAL_INSP_HOURS=28'
p1194
I834
sS'PROGRAM_AREA=Coal--ROOF CONTROL SPOT INSPECTION'
p1195
I385
sS'VIOLATOR_VIOLATION_CNT=63'
p1196
I1592
sS'SAMPLE_CNT_AIR=88'
p1197
I495
sS'VIOLATOR_VIOLATION_CNT=68'
p1198
I1595
sS'VIOLATOR_VIOLATION_CNT=69'
p1199
I1596
sS'VIOLATOR_INSPECTION_DAY_CNT=465'
p1200
I1367
sS'PROGRAM_AREA=M/NM--ATTEMPTED INSPECTION'
p1201
I403
sS'VIOLATOR_VIOLATION_CNT=302'
p1202
I1506
sS'VIOLATOR_VIOLATION_CNT=303'
p1203
I1507
sS'VIOLATOR_VIOLATION_CNT=304'
p1204
I1508
sS'VIOLATOR_VIOLATION_CNT=305'
p1205
I1509
sS'VIOLATOR_VIOLATION_CNT=308'
p1206
I1510
sS'VIOLATOR_VIOLATION_CNT=309'
p1207
I1511
sS'SAMPLE_CNT_RESPDUST=663'
p1208
I728
sS'SAMPLE_CNT_NOISE=10'
p1209
I576
sS'TOTAL_INSP_HOURS=642'
p1210
I897
sS'SAMPLE_CNT_RESPDUST=1457'
p1211
I659
sS'PROGRAM_AREA=Coal--Impoundment Spot Inspection'
p1212
I371
sS'PROGRAM_AREA=Coal--ELECTRICAL SPOT INSPECTION'
p1213
I365
sS'TOTAL_INSP_HOURS=4'
p1214
I861
sS'TOTAL_INSP_HOURS=5'
p1215
I878
sS'TOTAL_INSP_HOURS=6'
p1216
I891
sS'TOTAL_INSP_HOURS=7'
p1217
I903
sS'TOTAL_INSP_HOURS=0'
p1218
I762
sS'TOTAL_INSP_HOURS=1'
p1219
I763
sS'TOTAL_INSP_HOURS=2'
p1220
I815
sS'TOTAL_INSP_HOURS=3'
p1221
I840
sS'SAMPLE_CNT_RESPDUST=234'
p1222
I686
sS'TOTAL_INSP_HOURS=8'
p1223
I914
sS'TOTAL_INSP_HOURS=9'
p1224
I924
sS'SAMPLE_CNT_RESPDUST=306'
p1225
I700
sS'VIOLATOR_VIOLATION_CNT=88'
p1226
I1611
sS'VIOLATOR_VIOLATION_CNT=82'
p1227
I1607
sS'VIOLATOR_VIOLATION_CNT=80'
p1228
I1605
sS'VIOLATOR_VIOLATION_CNT=81'
p1229
I1606
sS'VIOLATOR_VIOLATION_CNT=86'
p1230
I1609
sS'VIOLATOR_VIOLATION_CNT=275'
p1231
I1494
sS'VIOLATOR_VIOLATION_CNT=276'
p1232
I1495
sS'VIOLATOR_VIOLATION_CNT=277'
p1233
I1496
sS'SAMPLE_CNT_RESPDUST=128'
p1234
I651
sS'ACTIVITY=Part 50 Audit'
p1235
I42
sS'SAMPLE_CNT_RESPDUST=120'
p1236
I646
sS'SAMPLE_CNT_RESPDUST=126'
p1237
I649
sS'SAMPLE_CNT_RESPDUST=437'
p1238
I712
sS'SAMPLE_CNT_AIR=715'
p1239
I485
sS'SAMPLE_CNT_DUSTSURVEY=327'
p1240
I550
sS'PROGRAM_AREA=Coal--103(I) SPOT (15 DAY) INSPECTION'
p1241
I358
sS'AVG_MINE_HEIGHT=49'
p1242
I87
sS'PRIMARY_SIC=Pumice'
p1243
I341
sS'PRIMARY_SIC=Bentonite'
p1244
I303
sS'SAMPLE_CNT_DUSTSURVEY=74'
p1245
I567
sS'SAMPLE_CNT_DUSTSURVEY=71'
p1246
I565
sS'SAMPLE_CNT_DUSTSURVEY=4875'
p1247
I557
sS'SAMPLE_CNT_DUSTSURVEY=72'
p1248
I566
sS'TOTAL_ON_SITE_HOURS=217'
p1249
I1055
sS'SAMPLE_CNT_DUSTSURVEY=78'
p1250
I568
sS'ACTIVITY=Health Technical Investigation'
p1251
I28
sS'TOTAL_ON_SITE_HOURS=158'
p1252
I1018
sS'TOTAL_ON_SITE_HOURS=153'
p1253
I1015
sS'TOTAL_ON_SITE_HOURS=150'
p1254
I1013
sS'TOTAL_ON_SITE_HOURS=151'
p1255
I1014
sS'TOTAL_ON_SITE_HOURS=154'
p1256
I1016
sS'TOTAL_ON_SITE_HOURS=155'
p1257
I1017
sS'VIOLATOR_INSPECTION_DAY_CNT=439'
p1258
I1341
sS'VIOLATOR_INSPECTION_DAY_CNT=435'
p1259
I1338
sS'VIOLATOR_INSPECTION_DAY_CNT=437'
p1260
I1340
sS'VIOLATOR_INSPECTION_DAY_CNT=436'
p1261
I1339
sS'VIOLATOR_INSPECTION_DAY_CNT=431'
p1262
I1335
sS'VIOLATOR_INSPECTION_DAY_CNT=433'
p1263
I1337
sS'VIOLATOR_INSPECTION_DAY_CNT=432'
p1264
I1336
sS'SAMPLE_CNT_AIR=312'
p1265
I457
sS'VIOLATOR_INSPECTION_DAY_CNT=19'
p1266
I1266
sS'VIOLATOR_INSPECTION_DAY_CNT=10'
p1267
I1228
sS'VIOLATOR_INSPECTION_DAY_CNT=11'
p1268
I1236
sS'VIOLATOR_INSPECTION_DAY_CNT=12'
p1269
I1244
sS'VIOLATOR_INSPECTION_DAY_CNT=13'
p1270
I1248
sS'VIOLATOR_INSPECTION_DAY_CNT=14'
p1271
I1253
sS'VIOLATOR_INSPECTION_DAY_CNT=15'
p1272
I1255
sS'VIOLATOR_INSPECTION_DAY_CNT=16'
p1273
I1258
sS'VIOLATOR_INSPECTION_DAY_CNT=17'
p1274
I1261
sS'TOTAL_INSP_HOURS=213'
p1275
I818
sS'TOTAL_INSP_HOURS=215'
p1276
I819
sS'TOTAL_INSP_HRS_SPVR_TRAINEE=48'
p1277
I955
sS'VIOLATOR_INSPECTION_DAY_CNT=509'
p1278
I1390
sS'ACTIVITY=REGULAR INSPECTION'
p1279
I43
sS'TOTAL_INSP_HOURS=182'
p1280
I810
sS'SAMPLE_CNT_DUSTSURVEY=99'
p1281
I574
sS'NO_AFFECTED=20'
p1282
I194
sS'NO_AFFECTED=22'
p1283
I195
sS'SAMPLE_CNT_DUSTSURVEY=92'
p1284
I572
sS'SAMPLE_CNT_DUSTSURVEY=96'
p1285
I573
sS'TOTAL_ON_SITE_HOURS=47'
p1286
I1116
sS'TOTAL_ON_SITE_HOURS=46'
p1287
I1115
sS'TOTAL_ON_SITE_HOURS=45'
p1288
I1112
sS'TOTAL_ON_SITE_HOURS=44'
p1289
I1109
sS'TOTAL_ON_SITE_HOURS=43'
p1290
I1105
sS'TOTAL_ON_SITE_HOURS=42'
p1291
I1104
sS'TOTAL_ON_SITE_HOURS=41'
p1292
I1101
sS'TOTAL_ON_SITE_HOURS=40'
p1293
I1098
sS'TOTAL_ON_SITE_HOURS=49'
p1294
I1120
sS'TOTAL_ON_SITE_HOURS=48'
p1295
I1117
sS'VIOLATOR_TYPE_CD=Contractor'
p1296
I1433
sS'ACTIVITY=VENTILATION TECHNICAL INVESTIGATION'
p1297
I60
sS'ACTIVITY=WATER/SLURRY TECHNICAL INSPECTION'
p1298
I65
sS'SAMPLE_CNT_RESPDUST=840'
p1299
I737
sS'NBR_INSPECTORS=12'
p1300
I166
sS'PORTABLE_FIPS_ST_CD=20'
p1301
I265
sS'PORTABLE_FIPS_ST_CD=23'
p1302
I267
sS'NBR_INSPECTORS=11'
p1303
I165
sS'PORTABLE_FIPS_ST_CD=25'
p1304
I268
sS'PORTABLE_FIPS_ST_CD=27'
p1305
I270
sS'NBR_INSPECTORS=15'
p1306
I168
sS'PORTABLE_FIPS_ST_CD=29'
p1307
I271
sS'MULTIPLE_PITS=N'
p1308
I160
sS'SURF_FACILITY_MINE=N'
p1309
I758
sS'SAMPLE_CNT_AIR=75'
p1310
I488
sS'SAMPLE_CNT_AIR=72'
p1311
I486
sS'TOTAL_ON_SITE_HRS_SPVR_TRAINEE=26'
p1312
I1206
sS'TOTAL_ON_SITE_HRS_SPVR_TRAINEE=25'
p1313
I1205
sS'TOTAL_ON_SITE_HRS_SPVR_TRAINEE=24'
p1314
I1204
sS'TOTAL_ON_SITE_HRS_SPVR_TRAINEE=23'
p1315
I1203
sS'TOTAL_ON_SITE_HRS_SPVR_TRAINEE=21'
p1316
I1202
sS'TOTAL_ON_SITE_HRS_SPVR_TRAINEE=20'
p1317
I1201
sS'ACTIVITY=Non-Fatal Accident Investigation'
p1318
I36
sS'SAMPLE_CNT_AIR=92'
p1319
I497
sS'SAMPLE_CNT_AIR=90'
p1320
I496
sS'PRIMARY_SIC=Crushed, Broken Slate'
p1321
I316
sS'SAMPLE_CNT_RESPDUST=1175'
p1322
I644
sS'SAMPLE_CNT_NOISE=385'
p1323
I612
sS'VIOLATOR_VIOLATION_CNT=316'
p1324
I1514
sS'VIOLATOR_VIOLATION_CNT=311'
p1325
I1513
sS'PRIMARY_SIC=Salt, Brine Evaporated'
p1326
I343
sS'ACTIVITY=PART 50 AUDIT'
p1327
I40
sS'SAMPLE_CNT_RESPDUST=1776'
p1328
I674
sS'PRIMARY_SIC=Lime'
p1329
I335
sS'VIOLATOR_VIOLATION_CNT=45'
p1330
I1574
sS'NO_EMPLOYEES=95'
p1331
I246
sS'NO_EMPLOYEES=112'
p1332
I210
sS'SAMPLE_CNT_RESPDUST=208'
p1333
I681
sS'INJ_ILLNESS='
p1334
I138
sS'ACTIVITY=OTHER CONTACTS'
p1335
I38
sS'SAMPLE_CNT_RESPDUST=330'
p1336
I703
sS'INJ_ILLNESS=LostDays'
p1337
I140
sS'VIOLATOR_VIOLATION_CNT=263'
p1338
I1492
sS'SAMPLE_CNT_DUSTSURVEY=2420'
p1339
I540
sS'SAMPLE_CNT_AIR=276'
p1340
I454
sS'SAMPLE_CNT_RESPDUST=116'
p1341
I643
sS'SAMPLE_CNT_RESPDUST=110'
p1342
I641
sS'SAMPLE_CNT_RESPDUST=444'
p1343
I713
sS'ACTIVITY=ELECTRICAL INSPECTION'
p1344
I20
sS'TOTAL_ON_SITE_HOURS=528'
p1345
I1125
sS'ACTIVITY=ATTEMPTED INSPECTION'
p1346
I15
sS'SAMPLE_CNT_NOISE=80'
p1347
I629
sS'VIOLATOR_INSPECTION_DAY_CNT=428'
p1348
I1333
sS'PROGRAM_AREA=Coal--PART 50 AUDITS'
p1349
I379
sS'VIOLATOR_INSPECTION_DAY_CNT=422'
p1350
I1328
sS'VIOLATOR_INSPECTION_DAY_CNT=423'
p1351
I1329
sS'VIOLATOR_INSPECTION_DAY_CNT=420'
p1352
I1327
sS'VIOLATOR_INSPECTION_DAY_CNT=427'
p1353
I1332
sS'VIOLATOR_INSPECTION_DAY_CNT=424'
p1354
I1330
sS'VIOLATOR_INSPECTION_DAY_CNT=425'
p1355
I1331
sS'TOTAL_ON_SITE_HOURS=180'
p1356
I1037
sS'TOTAL_ON_SITE_HOURS=183'
p1357
I1039
sS'TOTAL_ON_SITE_HOURS=182'
p1358
I1038
sS'TOTAL_ON_SITE_HOURS=630'
p1359
I1142
sS'TOTAL_INSP_HOURS=229'
p1360
I822
sS'TOTAL_INSP_HRS_SPVR_TRAINEE=32'
p1361
I952
sS'TOTAL_INSP_HOURS=227'
p1362
I821
sS'TOTAL_INSP_HRS_SPVR_TRAINEE=37'
p1363
I953
sS'VIOLATOR_INSPECTION_DAY_CNT=514'
p1364
I1391
sS'ACTIVITY=SAFETY & HEALTH (SATURATION) INSP'
p1365
I54
sS'PROGRAM_AREA=Coal--VENTILATION TECHNICAL INSPECTION'
p1366
I395
sS'PROGRAM_AREA=M/NM--ACCIDENT INVESTIGATION'
p1367
I402
sS'VIOLATOR_INSPECTION_DAY_CNT=479'
p1368
I1380
sS'VIOLATOR_INSPECTION_DAY_CNT=478'
p1369
I1379
sS'TOTAL_ON_SITE_HOURS=457'
p1370
I1114
sS'TOTAL_ON_SITE_HOURS=456'
p1371
I1113
sS'SAMPLE_CNT_AIR=1100'
p1372
I428
sS'SAMPLE_CNT_NOISE=185'
p1373
I593
sS'NO_AFFECTED=10'
p1374
I186
sS'NO_AFFECTED=11'
p1375
I187
sS'NO_AFFECTED=12'
p1376
I188
sS'NO_AFFECTED=13'
p1377
I189
sS'NO_AFFECTED=14'
p1378
I190
sS'NO_AFFECTED=15'
p1379
I191
sS'NO_AFFECTED=16'
p1380
I192
sS'TOTAL_ON_SITE_HOURS=32'
p1381
I1081
sS'TOTAL_ON_SITE_HOURS=33'
p1382
I1083
sS'TOTAL_ON_SITE_HOURS=30'
p1383
I1078
sS'TOTAL_ON_SITE_HOURS=31'
p1384
I1079
sS'TOTAL_ON_SITE_HOURS=36'
p1385
I1087
sS'TOTAL_ON_SITE_HOURS=37'
p1386
I1091
sS'TOTAL_ON_SITE_HOURS=34'
p1387
I1084
sS'TOTAL_ON_SITE_HOURS=35'
p1388
I1085
sS'TOTAL_ON_SITE_HOURS=38'
p1389
I1094
sS'TOTAL_ON_SITE_HOURS=39'
p1390
I1095
sS'PROGRAM_AREA=Coal--Non-Fatal Accident Investigation'
p1391
I375
sS'SAMPLE_CNT_OTHER=64'
p1392
I636
sS'TOTAL_INSP_HOURS=406'
p1393
I865
sS'TOTAL_INSP_HOURS=404'
p1394
I864
sS'TOTAL_INSP_HOURS=150'
p1395
I802
sS'TOTAL_INSP_HOURS=400'
p1396
I863
sS'TOTAL_INSP_HOURS=153'
p1397
I803
sS'ACTIVITY=WASTE PILE TECHNICAL INSPECTION'
p1398
I64
sS'VIOLATOR_INSPECTION_DAY_CNT=477'
p1399
I1378
sS'PROGRAM_AREA=Coal--103(I) SPOT (10-DAY) INSPECTION'
p1400
I357
sS'SAMPLE_CNT_NOISE=455'
p1401
I615
sS'PRIMARY_SIC=Cement'
p1402
I304
sS'PORTABLE_FIPS_ST_CD=18'
p1403
I263
sS'PORTABLE_FIPS_ST_CD=19'
p1404
I264
sS'PORTABLE_FIPS_ST_CD=15'
p1405
I260
sS'PORTABLE_FIPS_ST_CD=16'
p1406
I261
sS'PORTABLE_FIPS_ST_CD=17'
p1407
I262
sS'PORTABLE_FIPS_ST_CD=12'
p1408
I259
sS'ACTIVITY=Mine Idle Activity'
p1409
I31
sS'NEGLIGENCE=HighNegligence'
p1410
I179
sS'SURF_UG_MINE=Y'
p1411
I761
sS'SURF_UG_MINE=N'
p1412
I760
sS'TOTAL_ON_SITE_HRS_SPVR_TRAINEE=38'
p1413
I1210
sS'TOTAL_ON_SITE_HRS_SPVR_TRAINEE=30'
p1414
I1208
sS'TOTAL_ON_SITE_HRS_SPVR_TRAINEE=32'
p1415
I1209
sS'TOTAL_INSP_HOURS=392'
p1416
I860
sS'PROGRAM_AREA=M/NM--Spot Inspection'
p1417
I417
sS'SAMPLE_CNT_RESPDUST=48'
p1418
I716
sS'SAMPLE_CNT_RESPDUST=45'
p1419
I714
sS'SAMPLE_CNT_RESPDUST=40'
p1420
I710
sS'TOTAL_ON_SITE_HOURS=375'
p1421
I1092
sS'PROGRAM_AREA=Coal--RESP DUST TECHNICAL INVESTIGATION'
p1422
I383
sS'HIGHWALL_MINER_USED=Y'
p1423
I117
sS'HIGHWALL_MINER_USED=N'
p1424
I116
sS'IMPOUNDMENTS=N'
p1425
I135
sS'TOTAL_ON_SITE_HOURS=74'
p1426
I1157
sS'NBR_INSPECTORS=10'
p1427
I164
sS'NO_EMPLOYEES=103'
p1428
I209
sS'IMPOUNDMENTS=Y'
p1429
I136
sS'SAMPLE_CNT_RESPDUST=529'
p1430
I721
sS'VIOLATOR_VIOLATION_CNT=102'
p1431
I1439
sS'ACTIVITY=Verbal Hazard Complaint Inspections'
p1432
I63
sS'SAMPLE_CNT_DUSTSPOT=18'
p1433
I500
sS'NO_EMPLOYEES=214'
p1434
I222
sS'VIOLATOR_VIOLATION_CNT=105'
p1435
I1440
sS'ACTIVITY=NOISE TECHNICAL INVESTIGATION'
p1436
I32
sS'VIOLATOR_VIOLATION_CNT=293'
p1437
I1502
sS'VIOLATOR_VIOLATION_CNT=290'
p1438
I1500
sS'VIOLATOR_VIOLATION_CNT=291'
p1439
I1501
sS'VIOLATOR_VIOLATION_CNT=296'
p1440
I1503
sS'SAMPLE_CNT_RESPDUST=520'
p1441
I720
sS'SAMPLE_CNT_AIR=240'
p1442
I449
sS'SAMPLE_CNT_RESPDUST=450'
p1443
I715
sS'SAMPLE_CNT_RESPDUST=100'
p1444
I639
sS'SAMPLE_CNT_RESPDUST=108'
p1445
I640
sS'SAMPLE_CNT_RESPDUST=210'
p1446
I682
sS'ACTIVITY=ATTEMPTED INSPECTION (DENIAL OF ENTRY)'
p1447
I16
sS'ACTIVITY=SPECIAL ENFORCEMENT 3'
p1448
I55
sS'TOTAL_ON_SITE_HOURS=533'
p1449
I1127
sS'SAMPLE_CNT_NOISE=1239'
p1450
I582
sS'VIOLATOR_INSPECTION_DAY_CNT=185'
p1451
I1265
sS'SAMPLE_CNT_NOISE=95'
p1452
I632
sS'SAMPLE_CNT_NOISE=90'
p1453
I631
sS'VIOLATOR_INSPECTION_DAY_CNT=72'
p1454
I1410
sS'VIOLATOR_INSPECTION_DAY_CNT=73'
p1455
I1411
sS'SAMPLE_CNT_AIR=336'
p1456
I460
sS'VIOLATOR_INSPECTION_DAY_CNT=71'
p1457
I1409
sS'VIOLATOR_INSPECTION_DAY_CNT=77'
p1458
I1414
sS'VIOLATOR_INSPECTION_DAY_CNT=74'
p1459
I1412
sS'SAMPLE_CNT_AIR=333'
p1460
I459
sS'VIOLATOR_INSPECTION_DAY_CNT=78'
p1461
I1415
sS'TOTAL_ON_SITE_HOURS=195'
p1462
I1043
sS'TOTAL_ON_SITE_HOURS=193'
p1463
I1042
sS'TOTAL_ON_SITE_HOURS=191'
p1464
I1041
sS'TOTAL_INSP_HOURS=239'
p1465
I824
sS'TOTAL_INSP_HRS_SPVR_TRAINEE=28'
p1466
I949
sS'VIOLATOR_VIOLATION_CNT=219'
p1467
I1484
sS'LIKELIHOOD=NoLikelihood'
p1468
I145
sS'VIOLATOR_INSPECTION_DAY_CNT=166'
p1469
I1260
sS'VIOLATOR_INSPECTION_DAY_CNT=165'
p1470
I1259
sS'TOTAL_INSP_HRS_SPVR_TRAINEE=22'
p1471
I946
sS'TOTAL_INSP_HRS_SPVR_TRAINEE=25'
p1472
I948
sS'TOTAL_INSP_HRS_SPVR_TRAINEE=24'
p1473
I947
sS'VIOLATOR_INSPECTION_DAY_CNT=291'
p1474
I1291
sS'VIOLATOR_INSPECTION_DAY_CNT=295'
p1475
I1292
sS'ACTIVITY=SPOT INSPECTION'
p1476
I56
sS'OUTBY_AREAS=Y'
p1477
I248
sS'ACTIVITY=Regular Safety and Health Inspection'
p1478
I52
sS'TOTAL_ON_SITE_HOURS=440'
p1479
I1110
sS'PORTABLE_OPERATION=Y'
p1480
I293
sS'TOTAL_ON_SITE_HOURS=443'
p1481
I1111
sS'VIOLATOR_INSPECTION_DAY_CNT=440'
p1482
I1343
sS'TOTAL_ON_SITE_HOURS=991'
p1483
I1187
sS'PORTABLE_OPERATION=N'
p1484
I292
sS'TOTAL_ON_SITE_HOURS=21'
p1485
I1051
sS'TOTAL_ON_SITE_HOURS=20'
p1486
I1046
sS'TOTAL_ON_SITE_HOURS=23'
p1487
I1059
sS'TOTAL_ON_SITE_HOURS=22'
p1488
I1056
sS'TOTAL_ON_SITE_HOURS=25'
p1489
I1064
sS'TOTAL_ON_SITE_HOURS=24'
p1490
I1061
sS'TOTAL_ON_SITE_HOURS=27'
p1491
I1068
sS'TOTAL_ON_SITE_HOURS=26'
p1492
I1067
sS'TOTAL_ON_SITE_HOURS=29'
p1493
I1075
sS'TOTAL_ON_SITE_HOURS=28'
p1494
I1072
sS'PROGRAM_AREA=Coal--Regular Safety and Health Inspection'
p1495
I389
sS'TOTAL_INSP_HOURS=146'
p1496
I799
sS'TOTAL_INSP_HOURS=145'
p1497
I798
sS'TOTAL_INSP_HOURS=144'
p1498
I797
sS'TOTAL_INSP_HOURS=143'
p1499
I796
sS'TOTAL_INSP_HOURS=142'
p1500
I795
sS'TOTAL_INSP_HOURS=141'
p1501
I794
sS'TOTAL_INSP_HOURS=140'
p1502
I793
sS'TOTAL_INSP_HOURS=149'
p1503
I800
sS'PROGRAM_AREA=Coal--NOISE TECHNICAL INVESTIGATION'
p1504
I372
sS'PORTABLE_FIPS_ST_CD=09'
p1505
I258
sS'PORTABLE_FIPS_ST_CD=08'
p1506
I257
sS'PORTABLE_FIPS_ST_CD=02'
p1507
I253
sS'PORTABLE_FIPS_ST_CD=06'
p1508
I256
sS'PORTABLE_FIPS_ST_CD=05'
p1509
I255
sS'PORTABLE_FIPS_ST_CD=04'
p1510
I254
sS'PRIMARY_SIC=Mica'
p1511
I336
sS'ACTIVITY=ROOF CONTROL TECHNICAL INSPECTION'
p1512
I49
sS'TOTAL_ON_SITE_HRS_SPVR_TRAINEE=45'
p1513
I1212
sS'TOTAL_ON_SITE_HRS_SPVR_TRAINEE=46'
p1514
I1213
sS'TOTAL_INSP_HOURS=29'
p1515
I838
sS'PROGRAM_AREA=Coal--WASTE PILE TECHNICAL INSPECTION'
p1516
I399
sS'SAMPLE_CNT_RESPDUST=55'
p1517
I722
sS'SAMPLE_CNT_RESPDUST=56'
p1518
I723
sS'SAMPLE_CNT_RESPDUST=51'
p1519
I719
sS'SAMPLE_CNT_RESPDUST=50'
p1520
I718
sS'TOTAL_ON_SITE_HOURS=138'
p1521
I1002
sS'TOTAL_INSP_HOURS=25'
p1522
I826
sS'PRIMARY_SIC=Shell'
p1523
I346
sS'TOTAL_INSP_HOURS=24'
p1524
I825
sS'VIOLATOR_INSPECTION_DAY_CNT=98'
p1525
I1432
sS'NBR_INSPECTORS=2'
p1526
I170
sS'ACTIVITY=ACCIDENT PREVENTION SPOT INSPECTION'
p1527
I14
sS'ACTIVITY=103(G)(1) SPOT INSPECTION'
p1528
I8
sS'PROGRAM_AREA=Coal--RESP DUST TECH INSP - U. G. MINES'
p1529
I382
sS'SAMPLE_CNT_DUSTSURVEY=110'
p1530
I516
sS'VIOLATOR_VIOLATION_CNT=111'
p1531
I1445
sS'VIOLATOR_VIOLATION_CNT=110'
p1532
I1444
sS'VIOLATOR_VIOLATION_CNT=113'
p1533
I1446
sS'VIOLATOR_VIOLATION_CNT=117'
p1534
I1447
sS'VIOLATOR_VIOLATION_CNT=119'
p1535
I1449
sS'VIOLATOR_VIOLATION_CNT=118'
p1536
I1448
sS'VIOLATOR_VIOLATION_CNT=282'
p1537
I1498
sS'ACTIVITY=Non-Chargeable Accident Investigation'
p1538
I35
sS'TOTAL_ON_SITE_HOURS=8'
p1539
I1164
sS'TOTAL_ON_SITE_HOURS=9'
p1540
I1176
sS'TOTAL_ON_SITE_HOURS=2'
p1541
I1045
sS'TOTAL_ON_SITE_HOURS=3'
p1542
I1077
sS'TOTAL_ON_SITE_HOURS=0'
p1543
I961
sS'TOTAL_ON_SITE_HOURS=1'
p1544
I962
sS'TOTAL_ON_SITE_HOURS=6'
p1545
I1136
sS'TOTAL_ON_SITE_HOURS=7'
p1546
I1151
sS'TOTAL_ON_SITE_HOURS=4'
p1547
I1097
sS'TOTAL_ON_SITE_HOURS=5'
p1548
I1121
sS'SAMPLE_CNT_AIR=253'
p1549
I451
sS'AVG_MINE_HEIGHT=38'
p1550
I79
sS'SAMPLE_CNT_AIR=250'
p1551
I450
sS'SAMPLE_CNT_AIR=255'
p1552
I452
sS'AVG_MINE_HEIGHT=32'
p1553
I74
sS'AVG_MINE_HEIGHT=33'
p1554
I75
sS'AVG_MINE_HEIGHT=36'
p1555
I77
sS'AVG_MINE_HEIGHT=37'
p1556
I78
sS'AVG_MINE_HEIGHT=35'
p1557
I76
sS'SAMPLE_CNT_RESPDUST=2176'
p1558
I683
sS'PRIMARY_SIC=Common Clays NEC'
p1559
I308
sS'SAMPLE_CNT_NOISE=88'
p1560
I630
sS'ACTIVITY=ACCIDENT INVESTIGATION'
p1561
I13
sS'VIOLATOR_INSPECTION_DAY_CNT=193'
p1562
I1268
sS'VIOLATOR_INSPECTION_DAY_CNT=190'
p1563
I1267
sS'VIOLATOR_INSPECTION_DAY_CNT=197'
p1564
I1269
sS'SAMPLE_CNT_NOISE=60'
p1565
I623
sS'SAMPLE_CNT_NOISE=66'
p1566
I626
sS'SAMPLE_CNT_NOISE=65'
p1567
I625
sS'SAMPLE_CNT_NOISE=64'
p1568
I624
sS'VIOLATOR_INSPECTION_DAY_CNT=61'
p1569
I1399
sS'VIOLATOR_INSPECTION_DAY_CNT=60'
p1570
I1398
sS'VIOLATOR_INSPECTION_DAY_CNT=62'
p1571
I1400
sS'VIOLATOR_INSPECTION_DAY_CNT=65'
p1572
I1402
sS'VIOLATOR_INSPECTION_DAY_CNT=64'
p1573
I1401
sS'VIOLATOR_INSPECTION_DAY_CNT=67'
p1574
I1404
sS'VIOLATOR_INSPECTION_DAY_CNT=66'
p1575
I1403
sS'VIOLATOR_INSPECTION_DAY_CNT=69'
p1576
I1406
sS'VIOLATOR_INSPECTION_DAY_CNT=68'
p1577
I1405
sS'TOTAL_INSP_HRS_SPVR_TRAINEE=14'
p1578
I939
sS'TOTAL_INSP_HRS_SPVR_TRAINEE=15'
p1579
I940
sS'TOTAL_INSP_HRS_SPVR_TRAINEE=16'
p1580
I941
sS'TOTAL_INSP_HRS_SPVR_TRAINEE=17'
p1581
I942
sS'TOTAL_INSP_HRS_SPVR_TRAINEE=10'
p1582
I935
sS'TOTAL_INSP_HRS_SPVR_TRAINEE=11'
p1583
I936
sS'TOTAL_INSP_HRS_SPVR_TRAINEE=12'
p1584
I937
sS'TOTAL_INSP_HRS_SPVR_TRAINEE=13'
p1585
I938
sS'VIOLATOR_INSPECTION_DAY_CNT=177'
p1586
I1262
sS'TOTAL_INSP_HRS_SPVR_TRAINEE=18'
p1587
I943
sS'TOTAL_INSP_HRS_SPVR_TRAINEE=19'
p1588
I944
sS'PROGRAM_AREA=Coal--Ventilation Technical Investigation'
p1589
I397
sS'SHAFTS_SLOPES=N'
p1590
I748
sS'TOTAL_ON_SITE_HOURS=294'
p1591
I1076
sS'PROGRAM_AREA=Coal--Fatal Accident Investigation'
p1592
I368
sS'SHAFTS_SLOPES=Y'
p1593
I749
sS'TOTAL_ON_SITE_HOURS=277'
p1594
I1071
sS'TOTAL_ON_SITE_HOURS=275'
p1595
I1070
sS'TOTAL_ON_SITE_HOURS=273'
p1596
I1069
sS'TOTAL_INSP_HOURS=390'
p1597
I859
sS'SAMPLE_CNT_RESPDUST=2301'
p1598
I685
sS'SAMPLE_CNT_RESPDUST=903'
p1599
I741
sS'NO_AFFECTED=79'
p1600
I203
sS'VIOLATOR_INSPECTION_DAY_CNT=379'
p1601
I1308
sS'OUTBY_AREAS=N'
p1602
I247
sS'TOTAL_ON_SITE_HOURS=18'
p1603
I1036
sS'TOTAL_ON_SITE_HOURS=19'
p1604
I1040
sS'TOTAL_ON_SITE_HOURS=14'
p1605
I1003
sS'TOTAL_ON_SITE_HOURS=15'
p1606
I1012
sS'TOTAL_ON_SITE_HOURS=16'
p1607
I1019
sS'TOTAL_ON_SITE_HOURS=17'
p1608
I1028
sS'TOTAL_ON_SITE_HOURS=10'
p1609
I963
sS'TOTAL_ON_SITE_HOURS=11'
p1610
I974
sS'TOTAL_ON_SITE_HOURS=12'
p1611
I984
sS'TOTAL_ON_SITE_HOURS=13'
p1612
I994
sS'TOTAL_INSP_HOURS=176'
p1613
I808
sS'ACTIVITY=PART 50 AUDITS'
p1614
I41
sS'PRIMARY_SIC=Iron Ore'
p1615
I332
sS'PROGRAM_AREA=Coal--RESPIRABLE DUST SPOT INSPECTION'
p1616
I384
sS'MISC_AREA=N'
p1617
I158
sS'MISC_AREA=Y'
p1618
I159
sS'ACTIVITY=Impoundment Spot Inspection'
p1619
I29
sS'VIOLATOR_TYPE_CD=Operator'
p1620
I1434
sS'VIOLATOR_INSPECTION_DAY_CNT=457'
p1621
I1359
sS'SAMPLE_CNT_AIR=1248'
p1622
I433
sS'VIOLATOR_INSPECTION_DAY_CNT=456'
p1623
I1358
sS'VIOLATOR_INSPECTION_DAY_CNT=455'
p1624
I1357
ssS'dtype'
p1625
cnumpy
float64
p1626
sS'feature_names_'
p1627
(lp1628
g80
ag79
ag78
ag77
ag194
ag82
ag81
ag452
ag1528
ag1151
ag90
ag1087
ag518
ag1561
ag1527
ag1346
ag1447
ag488
ag965
ag765
ag1344
ag799
ag100
ag645
ag651
ag1062
ag655
ag31
ag1251
ag1619
ag297
ag1409
ag1436
ag700
ag574
ag1538
ag1318
ag761
ag1335
ag276
ag1327
ag1614
ag1235
ag1279
ag277
ag282
ag907
ag1119
ag76
ag1512
ag805
ag333
ag1478
ag355
ag1365
ag1448
ag1476
ag294
ag987
ag102
ag1297
ag64
ag548
ag1432
ag1398
ag1298
ag403
ag273
ag274
ag374
ag30
ag489
ag32
ag29
ag1553
ag1554
ag1557
ag1555
ag1556
ag1550
ag713
ag712
ag711
ag710
ag709
ag708
ag707
ag1242
ag566
ag433
ag430
ag431
ag329
ag328
ag975
ag991
ag992
ag994
ag22
ag183
ag972
ag968
ag1170
ag1168
ag55
ag56
ag57
ag58
ag59
ag60
ag61
ag62
ag155
ag154
ag1156
ag1158
ag1424
ag1423
ag157
ag158
ag263
ag264
ag265
ag261
ag262
ag156
ag161
ag162
ag159
ag160
ag163
ag164
ag279
ag278
ag280
ag1425
ag1429
ag1173
ag1334
ag417
ag1337
ag180
ag18
ag101
ag846
ag1468
ag193
ag241
ag802
ag1030
ag1029
ag1031
ag1032
ag1166
ag1171
ag1155
ag382
ag970
ag1617
ag1618
ag1308
ag1024
ag787
ag788
ag1427
ag1303
ag1300
ag1110
ag1306
ag1121
ag1526
ag790
ag791
ag792
ag793
ag794
ag795
ag796
ag1026
ag1410
ag420
ag531
ag831
ag383
ag257
ag258
ag1374
ag1375
ag1376
ag1377
ag1378
ag1379
ag1380
ag255
ag1282
ag1283
ag256
ag1133
ag231
ag253
ag254
ag251
ag252
ag1600
ag259
ag260
ag1072
ag1073
ag554
ag1428
ag1332
ag555
ag556
ag557
ag558
ag696
ag559
ag562
ag553
ag108
ag689
ag688
ag1434
ag690
ag685
ag684
ag687
ag686
ag24
ag692
ag691
ag109
ag834
ag835
ag836
ag839
ag114
ag39
ag38
ag37
ag115
ag971
ag112
ag113
ag1085
ag119
ag1331
ag1602
ag1477
ag758
ag764
ag72
ag664
ag1507
ag1510
ag1509
ag1508
ag1506
ag1505
ag1408
ag1405
ag1406
ag1407
ag1403
ag1404
ag1301
ag1107
ag1302
ag1304
ag192
ag1305
ag1307
ag1161
ag1162
ag1159
ag1160
ag1164
ag1165
ag1163
ag1167
ag1038
ag1037
ag1036
ag1035
ag1040
ag1039
ag928
ag929
ag930
ag931
ag932
ag933
ag1484
ag1480
ag432
ag373
ag1056
ag969
ag818
ag947
ag429
ag910
ag665
ag1244
ag1402
ag218
ag832
ag570
ag1559
ag152
ag281
ag228
ag1130
ag69
ag89
ag438
ag1321
ag813
ag952
ag229
ag249
ag1091
ag405
ag623
ag1129
ag371
ag124
ag1025
ag404
ag283
ag134
ag384
ag1615
ag345
ag1006
ag1329
ag1511
ag803
ag41
ag127
ag539
ag1243
ag412
ag1326
ag33
ag63
ag1523
ag1084
ag837
ag838
ag136
ag840
ag841
ag842
ag833
ag1175
ag979
ag1400
ag1241
ag934
ag1063
ag211
ag872
ag728
ag1057
ag1213
ag852
ag1088
ag1592
ag964
ag165
ag1212
ag1504
ag434
ag309
ag1391
ag911
ag168
ag963
ag1349
ag855
ag624
ag1529
ag1422
ag1616
ag1195
ag314
ag151
ag275
ag1495
ag75
ag652
ag1064
ag233
ag706
ag1366
ag1068
ag1589
ag238
ag1516
ag1169
ag91
ag1367
ag1201
ag789
ag666
ag19
ag377
ag850
ag849
ag487
ag493
ag370
ag1172
ag843
ag732
ag1066
ag1417
ag822
ag372
ag622
ag627
ag854
ag524
ag325
ag681
ag327
ag326
ag1372
ag798
ag523
ag1174
ag103
ag1622
ag844
ag1033
ag506
ag526
ag702
ag703
ag525
ag522
ag1106
ag993
ag663
ag182
ag181
ag662
ag661
ag1442
ag1551
ag1549
ag1552
ag660
ag1340
ag1079
ag856
ag1265
ag804
ag1460
ag1456
ag421
ag44
ag806
ag807
ag857
ag926
ag870
ag1094
ag731
ag585
ag1049
ag976
ag1048
ag1047
ag1046
ag331
ag330
ag1177
ag1176
ag1178
ag40
ag858
ag848
ag705
ag1239
ag1311
ag311
ag1310
ag1191
ag407
ag546
ag453
ag823
ag1058
ag1197
ag1320
ag1319
ag167
ag512
ag1433
ag1070
ag1069
ag195
ag659
ag966
ag551
ag550
ag683
ag682
ag310
ag596
ag474
ag35
ag36
ag699
ag1530
ag196
ag473
ag472
ag478
ag418
ag419
ag477
ag312
ag313
ag476
ag21
ag186
ag184
ag475
ag98
ag479
ag563
ag561
ag615
ag25
ag613
ag614
ag611
ag1339
ag612
ag610
ag953
ag616
ag595
ag734
ag733
ag735
ag800
ag1240
ag736
ag876
ag877
ag874
ag875
ag871
ag1247
ag730
ag981
ag980
ag978
ag1090
ag1089
ag1092
ag1246
ag1248
ag1245
ag1250
ag1139
ag220
ag619
ag1284
ag1285
ag1281
ag1027
ag1209
ag626
ag625
ag147
ag756
ag898
ag1450
ag899
ag767
ag766
ag698
ag144
ag73
ag697
ag381
ag380
ag695
ag1373
ag1028
ag701
ag318
ag654
ag317
ag316
ag250
ag396
ag424
ag425
ag426
ag427
ag490
ag422
ag235
ag237
ag423
ag428
ag1323
ag107
ag106
ag1401
ag1013
ag768
ag905
ag188
ag189
ag187
ag190
ag1565
ag1568
ag1567
ag1566
ag42
ag43
ag1347
ag1560
ag1453
ag1452
ag153
ag358
ag201
ag1392
ag903
ag266
ag1444
ag1445
ag1342
ag945
ag1341
ag1322
ag267
ag1236
ag1157
ag922
ag1237
ag656
ag1234
ag1082
ag1081
ag1083
ag1080
ag415
ag974
ag973
ag1211
ag801
ag658
ag414
ag851
ag853
ag271
ag725
ag726
ag724
ag519
ag727
ag573
ag572
ag571
ag1328
ag272
ag104
ag704
ag565
ag402
ag897
ag1333
ag1446
ag1558
ag1067
ag1598
ag1222
ag398
ag99
ag399
ag185
ag20
ag400
ag401
ag179
ag105
ag34
ag319
ag904
ag166
ag1225
ag511
ag510
ag1336
ag514
ag552
ag513
ag967
ag508
ag97
ag1420
ag230
ag1238
ag1343
ag1419
ag1443
ag1418
ag1065
ag1520
ag1519
ag1441
ag1430
ag1517
ag1518
ag14
ag15
ag16
ag17
ag1208
ag85
ag84
ag83
ag87
ag977
ag924
ag375
ag925
ag1299
ag923
ag900
ag1043
ag1599
ag1042
ag1044
ag1045
ag1041
ag647
ag501
ag1590
ag1593
ag940
ag939
ag938
ag135
ag442
ag439
ag568
ag569
ag1309
ag1125
ag1412
ag1411
ag1218
ag1219
ag1149
ag224
ag223
ag222
ag221
ag227
ag226
ag225
ag219
ag191
ag1150
ag138
ag139
ag140
ag141
ag142
ag143
ag137
ag1147
ag481
ag483
ag482
ag485
ag484
ag486
ag1148
ag379
ag378
ag1145
ag1502
ag1501
ag1500
ag1499
ag1498
ag1497
ag1496
ag1503
ag1146
ag1395
ag1397
ag1143
ag71
ag70
ag1144
ag1613
ag1152
ag1280
ag1009
ag1153
ag217
ag1134
ag1220
ag786
ag785
ag1275
ag1276
ag784
ag1362
ag1360
ag783
ag1465
ag1524
ag1522
ag762
ag760
ag759
ag780
ag893
ag894
ag779
ag1194
ag148
ag149
ag146
ag1515
ag232
ag1221
ag917
ag918
ag919
ag739
ag920
ag589
ag591
ag593
ag594
ag913
ag458
ag457
ag914
ag915
ag916
ag1154
ag909
ag504
ag1597
ag1416
ag1214
ag496
ag1396
ag1394
ag1393
ag495
ag498
ag497
ag492
ag491
ag1034
ag494
ag657
ag92
ag797
ag500
ag499
ag1215
ag638
ag639
ag636
ag637
ag642
ag65
ag66
ag643
ag829
ag830
ag630
ag810
ag1216
ag242
ag324
ag240
ag239
ag246
ag1210
ag245
ag244
ag243
ag248
ag247
ag1217
ag386
ag387
ag388
ag389
ag390
ag391
ag392
ag393
ag394
ag395
ag1223
ag204
ag203
ag206
ag150
ag208
ag207
ag210
ag209
ag200
ag1224
ag353
ag354
ag351
ag352
ag349
ag350
ag348
ag347
ag861
ag862
ag1582
ag1583
ag1584
ag1585
ag1578
ag1579
ag1580
ag1581
ag1587
ag1588
ag859
ag1471
ag1473
ag1472
ag1466
ag597
ag860
ag1361
ag1363
ag865
ag1277
ag866
ag863
ag864
ag867
ag868
ag1543
ag1544
ag1609
ag578
ag577
ag580
ag579
ag582
ag581
ag584
ag583
ag576
ag575
ag1610
ag748
ag749
ag746
ag747
ag744
ag745
ag742
ag743
ag754
ag1611
ag344
ag343
ag342
ag341
ag340
ag339
ag338
ag337
ag336
ag1612
ag449
ag450
ag451
ag445
ag446
ag447
ag448
ag1521
ag1605
ag1103
ag1102
ag1105
ag1104
ag1100
ag1101
ag1098
ag1097
ag1606
ag1254
ag1255
ag1253
ag1256
ag1257
ag1252
ag1607
ag883
ag882
ag880
ag887
ag885
ag357
ag889
ag888
ag1608
ag1093
ag983
ag984
ag985
ag986
ag921
ag989
ag1603
ag1356
ag1358
ag1357
ag1604
ag1464
ag1463
ag1462
ag586
ag1541
ag1486
ag738
ag737
ag741
ag740
ag1485
ag617
ag590
ag592
ag1249
ag1488
ag455
ag456
ag1487
ag906
ag1490
ag205
ag202
ag1489
ag125
ag126
ag1492
ag1491
ag1596
ag1595
ag1594
ag1494
ag54
ag53
ag1493
ag1591
ag1542
ag1383
ag1384
ag995
ag1381
ag1120
ag1382
ag1387
ag1388
ag480
ag1385
ag618
ag621
ag620
ag1386
ag1421
ag757
ag1389
ag1390
ag215
ag1547
ag1293
ag1012
ag1011
ag1292
ag902
ag901
ag1291
ag1290
ag1126
ag1127
ag1128
ag1289
ag1479
ag1481
ag1288
ag1371
ag1370
ag1287
ag1286
ag1295
ag214
ag213
ag1294
ag1548
ag1135
ag1136
ag1137
ag1345
ag1138
ag1449
ag234
ag1140
ag1141
ag315
ag873
ag1142
ag1131
ag1132
ag1545
ag1021
ag45
ag1020
ag1023
ag1022
ag1359
ag1017
ag1016
ag1019
ag1018
ag1078
ag216
ag1015
ag1014
ag1546
ag520
ag128
ag521
ag516
ag517
ag1426
ag515
ag507
ag879
ag509
ag505
ag912
ag1539
ag774
ag773
ag772
ag771
ag376
ag778
ag777
ag776
ag775
ag782
ag781
ag1540
ag632
ag633
ag634
ag635
ag628
ag629
ag808
ag631
ag640
ag641
ag1483
ag845
ag954
ag1181
ag1182
ag1179
ag1180
ag1185
ag1186
ag1183
ag1184
ag1187
ag1188
ag955
ag1317
ag1316
ag1315
ag1314
ag1313
ag1312
ag956
ag1414
ag1415
ag1413
ag957
ag1513
ag1514
ag958
ag12
ag10
ag9
ag959
ag86
ag960
ag961
ag962
ag268
ag269
ag270
ag722
ag723
ag1267
ag11
ag470
ag465
ag464
ag467
ag466
ag461
ag1268
ag605
ag606
ag644
ag648
ag607
ag653
ag598
ag1269
ag198
ag197
ag199
ag1270
ag332
ag821
ag334
ag335
ag1271
ag51
ag1272
ag110
ag111
ag1273
ag1470
ag1469
ag1274
ag1586
ag646
ag892
ag1451
ag1266
ag1563
ag1562
ag1564
ag720
ag1116
ag588
ag1115
ag459
ag460
ag1118
ag359
ag356
ag1117
ag212
ag1112
ag1124
ag1123
ag1111
ag1010
ag1114
ag878
ag1113
ag1109
ag1108
ag1474
ag1475
ag721
ag1003
ag763
ag1004
ag896
ag895
ag1001
ag1007
ag1008
ag1005
ag1002
ag1122
ag999
ag1000
ag998
ag1601
ag996
ag68
ag67
ag997
ag132
ag130
ag131
ag133
ag718
ag1086
ag1099
ag118
ag1095
ag982
ag988
ag1096
ag990
ag117
ag1352
ag1350
ag1351
ag1354
ag1355
ag1353
ag1348
ag116
ag1262
ag1264
ag1263
ag1259
ag1261
ag1260
ag1258
ag123
ag1482
ag608
ag609
ag603
ag604
ag649
ag599
ag600
ag122
ag471
ag13
ag469
ag468
ag8
ag1624
ag1623
ag1621
ag463
ag462
ag121
ag886
ag884
ag360
ag1189
ag1200
ag346
ag881
ag890
ag891
ag120
ag751
ag750
ag752
ag753
ag755
ag1399
ag1369
ag1368
ag503
ag320
ag321
ag322
ag323
ag729
ag502
ag719
ag50
ag1278
ag1364
ag52
ag48
ag49
ag46
ag47
ag716
ag1570
ag1569
ag1571
ag1573
ag1572
ag1575
ag1574
ag1577
ag1576
ag717
ag908
ag1457
ag1454
ag1455
ag1459
ag869
ag1458
ag1461
ag587
ag714
ag564
ag560
ag549
ag650
ag538
ag527
ag602
ag601
ag715
ag440
ag441
ag145
ag443
ag444
ag1525
ag1296
ag1620
ag362
ag361
ag285
ag88
ag1431
ag1435
ag385
ag397
ag284
ag1532
ag1531
ag1533
ag1534
ag1536
ag1535
ag287
ag129
ag26
ag23
ag27
ag28
ag286
ag96
ag95
ag94
ag289
ag178
ag177
ag175
ag176
ag288
ag308
ag303
ag301
ag291
ag411
ag413
ag290
ag547
ag293
ag416
ag292
ag364
ag669
ag567
ag670
ag436
ag435
ag437
ag1467
ag671
ag847
ag672
ag673
ag1071
ag674
ag675
ag1338
ag676
ag1231
ag1232
ag1233
ag667
ag1537
ag668
ag1438
ag1439
ag1437
ag1440
ag363
ag535
ag1202
ag1203
ag1204
ag1205
ag1206
ag1207
ag534
ag1325
ag1324
ag533
ag951
ag950
ag949
ag809
ag948
ag946
ag532
ag1061
ag1060
ag1059
ag236
ag679
ag680
ag677
ag678
ag530
ag826
ag825
ag828
ag827
ag824
ag529
ag408
ag406
ag409
ag410
ag528
ag541
ag540
ag542
ag543
ag545
ag544
ag537
ag169
ag170
ag171
ag172
ag173
ag174
ag536
ag300
ag299
ag298
ag296
ag295
ag366
ag943
ag307
ag306
ag305
ag304
ag302
ag944
ag941
ag93
ag942
ag770
ag1330
ag937
ag769
ag935
ag936
ag365
ag74
ag820
ag819
ag815
ag814
ag817
ag816
ag812
ag811
ag368
ag1193
ag454
ag1196
ag1190
ag1192
ag1198
ag1199
ag367
ag1051
ag1050
ag1053
ag1052
ag1055
ag1054
ag927
ag1228
ag1229
ag1227
ag694
ag1230
ag693
ag1226
ag369
ag1074
ag1075
ag1077
ag1076
asS'separator'
p1629
S'='
p1630
sS'sparse'
p1631
I01
sb.